Archive member included to satisfy reference by file (symbol)

/opt/intelFPGA/18.1/nios2eds/bin/gnu/H-x86_64-pc-linux-gnu/bin/../lib/gcc/nios2-elf/5.3.0/../../../../../H-x86_64-pc-linux-gnu/nios2-elf/lib/mhw-mulx/libc.a(lib_a-malloc.o)
                              obj/default/pong.o (malloc)
/opt/intelFPGA/18.1/nios2eds/bin/gnu/H-x86_64-pc-linux-gnu/bin/../lib/gcc/nios2-elf/5.3.0/../../../../../H-x86_64-pc-linux-gnu/nios2-elf/lib/mhw-mulx/libc.a(lib_a-mallocr.o)
                              /opt/intelFPGA/18.1/nios2eds/bin/gnu/H-x86_64-pc-linux-gnu/bin/../lib/gcc/nios2-elf/5.3.0/../../../../../H-x86_64-pc-linux-gnu/nios2-elf/lib/mhw-mulx/libc.a(lib_a-malloc.o) (_malloc_r)
/opt/intelFPGA/18.1/nios2eds/bin/gnu/H-x86_64-pc-linux-gnu/bin/../lib/gcc/nios2-elf/5.3.0/../../../../../H-x86_64-pc-linux-gnu/nios2-elf/lib/mhw-mulx/libc.a(lib_a-printf.o)
                              obj/default/pong.o (printf)
/opt/intelFPGA/18.1/nios2eds/bin/gnu/H-x86_64-pc-linux-gnu/bin/../lib/gcc/nios2-elf/5.3.0/../../../../../H-x86_64-pc-linux-gnu/nios2-elf/lib/mhw-mulx/libc.a(lib_a-puts.o)
                              obj/default/pong.o (puts)
/opt/intelFPGA/18.1/nios2eds/bin/gnu/H-x86_64-pc-linux-gnu/bin/../lib/gcc/nios2-elf/5.3.0/../../../../../H-x86_64-pc-linux-gnu/nios2-elf/lib/mhw-mulx/libc.a(lib_a-sbrkr.o)
                              /opt/intelFPGA/18.1/nios2eds/bin/gnu/H-x86_64-pc-linux-gnu/bin/../lib/gcc/nios2-elf/5.3.0/../../../../../H-x86_64-pc-linux-gnu/nios2-elf/lib/mhw-mulx/libc.a(lib_a-mallocr.o) (_sbrk_r)
/opt/intelFPGA/18.1/nios2eds/bin/gnu/H-x86_64-pc-linux-gnu/bin/../lib/gcc/nios2-elf/5.3.0/../../../../../H-x86_64-pc-linux-gnu/nios2-elf/lib/mhw-mulx/libc.a(lib_a-snprintf.o)
                              obj/default/pong.o (snprintf)
/opt/intelFPGA/18.1/nios2eds/bin/gnu/H-x86_64-pc-linux-gnu/bin/../lib/gcc/nios2-elf/5.3.0/../../../../../H-x86_64-pc-linux-gnu/nios2-elf/lib/mhw-mulx/libc.a(lib_a-strcat.o)
                              obj/default/pong.o (strcat)
/opt/intelFPGA/18.1/nios2eds/bin/gnu/H-x86_64-pc-linux-gnu/bin/../lib/gcc/nios2-elf/5.3.0/../../../../../H-x86_64-pc-linux-gnu/nios2-elf/lib/mhw-mulx/libc.a(lib_a-strcpy.o)
                              obj/default/pong.o (strcpy)
/opt/intelFPGA/18.1/nios2eds/bin/gnu/H-x86_64-pc-linux-gnu/bin/../lib/gcc/nios2-elf/5.3.0/../../../../../H-x86_64-pc-linux-gnu/nios2-elf/lib/mhw-mulx/libc.a(lib_a-strlen.o)
                              obj/default/pong.o (strlen)
/opt/intelFPGA/18.1/nios2eds/bin/gnu/H-x86_64-pc-linux-gnu/bin/../lib/gcc/nios2-elf/5.3.0/../../../../../H-x86_64-pc-linux-gnu/nios2-elf/lib/mhw-mulx/libc.a(lib_a-svfprintf.o)
                              /opt/intelFPGA/18.1/nios2eds/bin/gnu/H-x86_64-pc-linux-gnu/bin/../lib/gcc/nios2-elf/5.3.0/../../../../../H-x86_64-pc-linux-gnu/nios2-elf/lib/mhw-mulx/libc.a(lib_a-snprintf.o) (___svfprintf_internal_r)
/opt/intelFPGA/18.1/nios2eds/bin/gnu/H-x86_64-pc-linux-gnu/bin/../lib/gcc/nios2-elf/5.3.0/../../../../../H-x86_64-pc-linux-gnu/nios2-elf/lib/mhw-mulx/libc.a(lib_a-vfprintf.o)
                              /opt/intelFPGA/18.1/nios2eds/bin/gnu/H-x86_64-pc-linux-gnu/bin/../lib/gcc/nios2-elf/5.3.0/../../../../../H-x86_64-pc-linux-gnu/nios2-elf/lib/mhw-mulx/libc.a(lib_a-printf.o) (___vfprintf_internal_r)
/opt/intelFPGA/18.1/nios2eds/bin/gnu/H-x86_64-pc-linux-gnu/bin/../lib/gcc/nios2-elf/5.3.0/../../../../../H-x86_64-pc-linux-gnu/nios2-elf/lib/mhw-mulx/libc.a(lib_a-wsetup.o)
                              /opt/intelFPGA/18.1/nios2eds/bin/gnu/H-x86_64-pc-linux-gnu/bin/../lib/gcc/nios2-elf/5.3.0/../../../../../H-x86_64-pc-linux-gnu/nios2-elf/lib/mhw-mulx/libc.a(lib_a-vfprintf.o) (__swsetup_r)
/opt/intelFPGA/18.1/nios2eds/bin/gnu/H-x86_64-pc-linux-gnu/bin/../lib/gcc/nios2-elf/5.3.0/../../../../../H-x86_64-pc-linux-gnu/nios2-elf/lib/mhw-mulx/libc.a(lib_a-dtoa.o)
                              /opt/intelFPGA/18.1/nios2eds/bin/gnu/H-x86_64-pc-linux-gnu/bin/../lib/gcc/nios2-elf/5.3.0/../../../../../H-x86_64-pc-linux-gnu/nios2-elf/lib/mhw-mulx/libc.a(lib_a-svfprintf.o) (_dtoa_r)
/opt/intelFPGA/18.1/nios2eds/bin/gnu/H-x86_64-pc-linux-gnu/bin/../lib/gcc/nios2-elf/5.3.0/../../../../../H-x86_64-pc-linux-gnu/nios2-elf/lib/mhw-mulx/libc.a(lib_a-fflush.o)
                              /opt/intelFPGA/18.1/nios2eds/bin/gnu/H-x86_64-pc-linux-gnu/bin/../lib/gcc/nios2-elf/5.3.0/../../../../../H-x86_64-pc-linux-gnu/nios2-elf/lib/mhw-mulx/libc.a(lib_a-vfprintf.o) (_fflush_r)
/opt/intelFPGA/18.1/nios2eds/bin/gnu/H-x86_64-pc-linux-gnu/bin/../lib/gcc/nios2-elf/5.3.0/../../../../../H-x86_64-pc-linux-gnu/nios2-elf/lib/mhw-mulx/libc.a(lib_a-findfp.o)
                              /opt/intelFPGA/18.1/nios2eds/bin/gnu/H-x86_64-pc-linux-gnu/bin/../lib/gcc/nios2-elf/5.3.0/../../../../../H-x86_64-pc-linux-gnu/nios2-elf/lib/mhw-mulx/libc.a(lib_a-puts.o) (__sinit)
/opt/intelFPGA/18.1/nios2eds/bin/gnu/H-x86_64-pc-linux-gnu/bin/../lib/gcc/nios2-elf/5.3.0/../../../../../H-x86_64-pc-linux-gnu/nios2-elf/lib/mhw-mulx/libc.a(lib_a-freer.o)
                              /opt/intelFPGA/18.1/nios2eds/bin/gnu/H-x86_64-pc-linux-gnu/bin/../lib/gcc/nios2-elf/5.3.0/../../../../../H-x86_64-pc-linux-gnu/nios2-elf/lib/mhw-mulx/libc.a(lib_a-malloc.o) (_free_r)
/opt/intelFPGA/18.1/nios2eds/bin/gnu/H-x86_64-pc-linux-gnu/bin/../lib/gcc/nios2-elf/5.3.0/../../../../../H-x86_64-pc-linux-gnu/nios2-elf/lib/mhw-mulx/libc.a(lib_a-fvwrite.o)
                              /opt/intelFPGA/18.1/nios2eds/bin/gnu/H-x86_64-pc-linux-gnu/bin/../lib/gcc/nios2-elf/5.3.0/../../../../../H-x86_64-pc-linux-gnu/nios2-elf/lib/mhw-mulx/libc.a(lib_a-puts.o) (__sfvwrite_r)
/opt/intelFPGA/18.1/nios2eds/bin/gnu/H-x86_64-pc-linux-gnu/bin/../lib/gcc/nios2-elf/5.3.0/../../../../../H-x86_64-pc-linux-gnu/nios2-elf/lib/mhw-mulx/libc.a(lib_a-fwalk.o)
                              /opt/intelFPGA/18.1/nios2eds/bin/gnu/H-x86_64-pc-linux-gnu/bin/../lib/gcc/nios2-elf/5.3.0/../../../../../H-x86_64-pc-linux-gnu/nios2-elf/lib/mhw-mulx/libc.a(lib_a-findfp.o) (_fwalk)
/opt/intelFPGA/18.1/nios2eds/bin/gnu/H-x86_64-pc-linux-gnu/bin/../lib/gcc/nios2-elf/5.3.0/../../../../../H-x86_64-pc-linux-gnu/nios2-elf/lib/mhw-mulx/libc.a(lib_a-impure.o)
                              /opt/intelFPGA/18.1/nios2eds/bin/gnu/H-x86_64-pc-linux-gnu/bin/../lib/gcc/nios2-elf/5.3.0/../../../../../H-x86_64-pc-linux-gnu/nios2-elf/lib/mhw-mulx/libc.a(lib_a-fflush.o) (_global_impure_ptr)
/opt/intelFPGA/18.1/nios2eds/bin/gnu/H-x86_64-pc-linux-gnu/bin/../lib/gcc/nios2-elf/5.3.0/../../../../../H-x86_64-pc-linux-gnu/nios2-elf/lib/mhw-mulx/libc.a(lib_a-int_errno.o)
                              /opt/intelFPGA/18.1/nios2eds/bin/gnu/H-x86_64-pc-linux-gnu/bin/../lib/gcc/nios2-elf/5.3.0/../../../../../H-x86_64-pc-linux-gnu/nios2-elf/lib/mhw-mulx/libc.a(lib_a-sbrkr.o) (errno)
/opt/intelFPGA/18.1/nios2eds/bin/gnu/H-x86_64-pc-linux-gnu/bin/../lib/gcc/nios2-elf/5.3.0/../../../../../H-x86_64-pc-linux-gnu/nios2-elf/lib/mhw-mulx/libc.a(lib_a-locale.o)
                              /opt/intelFPGA/18.1/nios2eds/bin/gnu/H-x86_64-pc-linux-gnu/bin/../lib/gcc/nios2-elf/5.3.0/../../../../../H-x86_64-pc-linux-gnu/nios2-elf/lib/mhw-mulx/libc.a(lib_a-svfprintf.o) (_localeconv_r)
/opt/intelFPGA/18.1/nios2eds/bin/gnu/H-x86_64-pc-linux-gnu/bin/../lib/gcc/nios2-elf/5.3.0/../../../../../H-x86_64-pc-linux-gnu/nios2-elf/lib/mhw-mulx/libc.a(lib_a-makebuf.o)
                              /opt/intelFPGA/18.1/nios2eds/bin/gnu/H-x86_64-pc-linux-gnu/bin/../lib/gcc/nios2-elf/5.3.0/../../../../../H-x86_64-pc-linux-gnu/nios2-elf/lib/mhw-mulx/libc.a(lib_a-wsetup.o) (__smakebuf_r)
/opt/intelFPGA/18.1/nios2eds/bin/gnu/H-x86_64-pc-linux-gnu/bin/../lib/gcc/nios2-elf/5.3.0/../../../../../H-x86_64-pc-linux-gnu/nios2-elf/lib/mhw-mulx/libc.a(lib_a-memchr.o)
                              /opt/intelFPGA/18.1/nios2eds/bin/gnu/H-x86_64-pc-linux-gnu/bin/../lib/gcc/nios2-elf/5.3.0/../../../../../H-x86_64-pc-linux-gnu/nios2-elf/lib/mhw-mulx/libc.a(lib_a-svfprintf.o) (memchr)
/opt/intelFPGA/18.1/nios2eds/bin/gnu/H-x86_64-pc-linux-gnu/bin/../lib/gcc/nios2-elf/5.3.0/../../../../../H-x86_64-pc-linux-gnu/nios2-elf/lib/mhw-mulx/libc.a(lib_a-memcpy.o)
                              /opt/intelFPGA/18.1/nios2eds/bin/gnu/H-x86_64-pc-linux-gnu/bin/../lib/gcc/nios2-elf/5.3.0/../../../../../H-x86_64-pc-linux-gnu/nios2-elf/lib/mhw-mulx/libc.a(lib_a-dtoa.o) (memcpy)
/opt/intelFPGA/18.1/nios2eds/bin/gnu/H-x86_64-pc-linux-gnu/bin/../lib/gcc/nios2-elf/5.3.0/../../../../../H-x86_64-pc-linux-gnu/nios2-elf/lib/mhw-mulx/libc.a(lib_a-memmove.o)
                              /opt/intelFPGA/18.1/nios2eds/bin/gnu/H-x86_64-pc-linux-gnu/bin/../lib/gcc/nios2-elf/5.3.0/../../../../../H-x86_64-pc-linux-gnu/nios2-elf/lib/mhw-mulx/libc.a(lib_a-fvwrite.o) (memmove)
/opt/intelFPGA/18.1/nios2eds/bin/gnu/H-x86_64-pc-linux-gnu/bin/../lib/gcc/nios2-elf/5.3.0/../../../../../H-x86_64-pc-linux-gnu/nios2-elf/lib/mhw-mulx/libc.a(lib_a-memset.o)
                              /opt/intelFPGA/18.1/nios2eds/bin/gnu/H-x86_64-pc-linux-gnu/bin/../lib/gcc/nios2-elf/5.3.0/../../../../../H-x86_64-pc-linux-gnu/nios2-elf/lib/mhw-mulx/libc.a(lib_a-findfp.o) (memset)
/opt/intelFPGA/18.1/nios2eds/bin/gnu/H-x86_64-pc-linux-gnu/bin/../lib/gcc/nios2-elf/5.3.0/../../../../../H-x86_64-pc-linux-gnu/nios2-elf/lib/mhw-mulx/libc.a(lib_a-mprec.o)
                              /opt/intelFPGA/18.1/nios2eds/bin/gnu/H-x86_64-pc-linux-gnu/bin/../lib/gcc/nios2-elf/5.3.0/../../../../../H-x86_64-pc-linux-gnu/nios2-elf/lib/mhw-mulx/libc.a(lib_a-dtoa.o) (_Balloc)
/opt/intelFPGA/18.1/nios2eds/bin/gnu/H-x86_64-pc-linux-gnu/bin/../lib/gcc/nios2-elf/5.3.0/../../../../../H-x86_64-pc-linux-gnu/nios2-elf/lib/mhw-mulx/libc.a(lib_a-reallocr.o)
                              /opt/intelFPGA/18.1/nios2eds/bin/gnu/H-x86_64-pc-linux-gnu/bin/../lib/gcc/nios2-elf/5.3.0/../../../../../H-x86_64-pc-linux-gnu/nios2-elf/lib/mhw-mulx/libc.a(lib_a-fvwrite.o) (_realloc_r)
/opt/intelFPGA/18.1/nios2eds/bin/gnu/H-x86_64-pc-linux-gnu/bin/../lib/gcc/nios2-elf/5.3.0/../../../../../H-x86_64-pc-linux-gnu/nios2-elf/lib/mhw-mulx/libc.a(lib_a-s_fpclassify.o)
                              /opt/intelFPGA/18.1/nios2eds/bin/gnu/H-x86_64-pc-linux-gnu/bin/../lib/gcc/nios2-elf/5.3.0/../../../../../H-x86_64-pc-linux-gnu/nios2-elf/lib/mhw-mulx/libc.a(lib_a-svfprintf.o) (__fpclassifyd)
/opt/intelFPGA/18.1/nios2eds/bin/gnu/H-x86_64-pc-linux-gnu/bin/../lib/gcc/nios2-elf/5.3.0/../../../../../H-x86_64-pc-linux-gnu/nios2-elf/lib/mhw-mulx/libc.a(lib_a-stdio.o)
                              /opt/intelFPGA/18.1/nios2eds/bin/gnu/H-x86_64-pc-linux-gnu/bin/../lib/gcc/nios2-elf/5.3.0/../../../../../H-x86_64-pc-linux-gnu/nios2-elf/lib/mhw-mulx/libc.a(lib_a-findfp.o) (__sread)
/opt/intelFPGA/18.1/nios2eds/bin/gnu/H-x86_64-pc-linux-gnu/bin/../lib/gcc/nios2-elf/5.3.0/../../../../../H-x86_64-pc-linux-gnu/nios2-elf/lib/mhw-mulx/libc.a(lib_a-strcmp.o)
                              /opt/intelFPGA/18.1/nios2eds/bin/gnu/H-x86_64-pc-linux-gnu/bin/../lib/gcc/nios2-elf/5.3.0/../../../../../H-x86_64-pc-linux-gnu/nios2-elf/lib/mhw-mulx/libc.a(lib_a-locale.o) (strcmp)
/opt/intelFPGA/18.1/nios2eds/bin/gnu/H-x86_64-pc-linux-gnu/bin/../lib/gcc/nios2-elf/5.3.0/../../../../../H-x86_64-pc-linux-gnu/nios2-elf/lib/mhw-mulx/libc.a(lib_a-svfiprintf.o)
                              /opt/intelFPGA/18.1/nios2eds/bin/gnu/H-x86_64-pc-linux-gnu/bin/../lib/gcc/nios2-elf/5.3.0/../../../../../H-x86_64-pc-linux-gnu/nios2-elf/lib/mhw-mulx/libc.a(lib_a-svfprintf.o) (__ssprint_r)
/opt/intelFPGA/18.1/nios2eds/bin/gnu/H-x86_64-pc-linux-gnu/bin/../lib/gcc/nios2-elf/5.3.0/../../../../../H-x86_64-pc-linux-gnu/nios2-elf/lib/mhw-mulx/libc.a(lib_a-vfiprintf.o)
                              /opt/intelFPGA/18.1/nios2eds/bin/gnu/H-x86_64-pc-linux-gnu/bin/../lib/gcc/nios2-elf/5.3.0/../../../../../H-x86_64-pc-linux-gnu/nios2-elf/lib/mhw-mulx/libc.a(lib_a-vfprintf.o) (__sprint_r)
/opt/intelFPGA/18.1/nios2eds/bin/gnu/H-x86_64-pc-linux-gnu/bin/../lib/gcc/nios2-elf/5.3.0/../../../../../H-x86_64-pc-linux-gnu/nios2-elf/lib/mhw-mulx/libc.a(lib_a-writer.o)
                              /opt/intelFPGA/18.1/nios2eds/bin/gnu/H-x86_64-pc-linux-gnu/bin/../lib/gcc/nios2-elf/5.3.0/../../../../../H-x86_64-pc-linux-gnu/nios2-elf/lib/mhw-mulx/libc.a(lib_a-stdio.o) (_write_r)
/opt/intelFPGA/18.1/nios2eds/bin/gnu/H-x86_64-pc-linux-gnu/bin/../lib/gcc/nios2-elf/5.3.0/../../../../../H-x86_64-pc-linux-gnu/nios2-elf/lib/mhw-mulx/libc.a(closer.o)
                              /opt/intelFPGA/18.1/nios2eds/bin/gnu/H-x86_64-pc-linux-gnu/bin/../lib/gcc/nios2-elf/5.3.0/../../../../../H-x86_64-pc-linux-gnu/nios2-elf/lib/mhw-mulx/libc.a(lib_a-stdio.o) (_close_r)
/opt/intelFPGA/18.1/nios2eds/bin/gnu/H-x86_64-pc-linux-gnu/bin/../lib/gcc/nios2-elf/5.3.0/../../../../../H-x86_64-pc-linux-gnu/nios2-elf/lib/mhw-mulx/libc.a(lib_a-callocr.o)
                              /opt/intelFPGA/18.1/nios2eds/bin/gnu/H-x86_64-pc-linux-gnu/bin/../lib/gcc/nios2-elf/5.3.0/../../../../../H-x86_64-pc-linux-gnu/nios2-elf/lib/mhw-mulx/libc.a(lib_a-mprec.o) (_calloc_r)
/opt/intelFPGA/18.1/nios2eds/bin/gnu/H-x86_64-pc-linux-gnu/bin/../lib/gcc/nios2-elf/5.3.0/../../../../../H-x86_64-pc-linux-gnu/nios2-elf/lib/mhw-mulx/libc.a(lib_a-fclose.o)
                              /opt/intelFPGA/18.1/nios2eds/bin/gnu/H-x86_64-pc-linux-gnu/bin/../lib/gcc/nios2-elf/5.3.0/../../../../../H-x86_64-pc-linux-gnu/nios2-elf/lib/mhw-mulx/libc.a(lib_a-findfp.o) (_fclose_r)
/opt/intelFPGA/18.1/nios2eds/bin/gnu/H-x86_64-pc-linux-gnu/bin/../lib/gcc/nios2-elf/5.3.0/../../../../../H-x86_64-pc-linux-gnu/nios2-elf/lib/mhw-mulx/libc.a(lib_a-fputwc.o)
                              /opt/intelFPGA/18.1/nios2eds/bin/gnu/H-x86_64-pc-linux-gnu/bin/../lib/gcc/nios2-elf/5.3.0/../../../../../H-x86_64-pc-linux-gnu/nios2-elf/lib/mhw-mulx/libc.a(lib_a-vfiprintf.o) (_fputwc_r)
/opt/intelFPGA/18.1/nios2eds/bin/gnu/H-x86_64-pc-linux-gnu/bin/../lib/gcc/nios2-elf/5.3.0/../../../../../H-x86_64-pc-linux-gnu/nios2-elf/lib/mhw-mulx/libc.a(lib_a-fstatr.o)
                              /opt/intelFPGA/18.1/nios2eds/bin/gnu/H-x86_64-pc-linux-gnu/bin/../lib/gcc/nios2-elf/5.3.0/../../../../../H-x86_64-pc-linux-gnu/nios2-elf/lib/mhw-mulx/libc.a(lib_a-makebuf.o) (_fstat_r)
/opt/intelFPGA/18.1/nios2eds/bin/gnu/H-x86_64-pc-linux-gnu/bin/../lib/gcc/nios2-elf/5.3.0/../../../../../H-x86_64-pc-linux-gnu/nios2-elf/lib/mhw-mulx/libc.a(lib_a-isattyr.o)
                              /opt/intelFPGA/18.1/nios2eds/bin/gnu/H-x86_64-pc-linux-gnu/bin/../lib/gcc/nios2-elf/5.3.0/../../../../../H-x86_64-pc-linux-gnu/nios2-elf/lib/mhw-mulx/libc.a(lib_a-makebuf.o) (_isatty_r)
/opt/intelFPGA/18.1/nios2eds/bin/gnu/H-x86_64-pc-linux-gnu/bin/../lib/gcc/nios2-elf/5.3.0/../../../../../H-x86_64-pc-linux-gnu/nios2-elf/lib/mhw-mulx/libc.a(lib_a-lseekr.o)
                              /opt/intelFPGA/18.1/nios2eds/bin/gnu/H-x86_64-pc-linux-gnu/bin/../lib/gcc/nios2-elf/5.3.0/../../../../../H-x86_64-pc-linux-gnu/nios2-elf/lib/mhw-mulx/libc.a(lib_a-stdio.o) (_lseek_r)
/opt/intelFPGA/18.1/nios2eds/bin/gnu/H-x86_64-pc-linux-gnu/bin/../lib/gcc/nios2-elf/5.3.0/../../../../../H-x86_64-pc-linux-gnu/nios2-elf/lib/mhw-mulx/libc.a(lib_a-readr.o)
                              /opt/intelFPGA/18.1/nios2eds/bin/gnu/H-x86_64-pc-linux-gnu/bin/../lib/gcc/nios2-elf/5.3.0/../../../../../H-x86_64-pc-linux-gnu/nios2-elf/lib/mhw-mulx/libc.a(lib_a-stdio.o) (_read_r)
/opt/intelFPGA/18.1/nios2eds/bin/gnu/H-x86_64-pc-linux-gnu/bin/../lib/gcc/nios2-elf/5.3.0/../../../../../H-x86_64-pc-linux-gnu/nios2-elf/lib/mhw-mulx/libc.a(lib_a-wbuf.o)
                              /opt/intelFPGA/18.1/nios2eds/bin/gnu/H-x86_64-pc-linux-gnu/bin/../lib/gcc/nios2-elf/5.3.0/../../../../../H-x86_64-pc-linux-gnu/nios2-elf/lib/mhw-mulx/libc.a(lib_a-fputwc.o) (__swbuf_r)
/opt/intelFPGA/18.1/nios2eds/bin/gnu/H-x86_64-pc-linux-gnu/bin/../lib/gcc/nios2-elf/5.3.0/../../../../../H-x86_64-pc-linux-gnu/nios2-elf/lib/mhw-mulx/libc.a(lib_a-wcrtomb.o)
                              /opt/intelFPGA/18.1/nios2eds/bin/gnu/H-x86_64-pc-linux-gnu/bin/../lib/gcc/nios2-elf/5.3.0/../../../../../H-x86_64-pc-linux-gnu/nios2-elf/lib/mhw-mulx/libc.a(lib_a-fputwc.o) (_wcrtomb_r)
/opt/intelFPGA/18.1/nios2eds/bin/gnu/H-x86_64-pc-linux-gnu/bin/../lib/gcc/nios2-elf/5.3.0/../../../../../H-x86_64-pc-linux-gnu/nios2-elf/lib/mhw-mulx/libc.a(lib_a-wctomb_r.o)
                              /opt/intelFPGA/18.1/nios2eds/bin/gnu/H-x86_64-pc-linux-gnu/bin/../lib/gcc/nios2-elf/5.3.0/../../../../../H-x86_64-pc-linux-gnu/nios2-elf/lib/mhw-mulx/libc.a(lib_a-wcrtomb.o) (__wctomb)
/opt/intelFPGA/18.1/nios2eds/bin/gnu/H-x86_64-pc-linux-gnu/bin/../lib/gcc/nios2-elf/5.3.0/mhw-mulx/libgcc.a(_udivdi3.o)
                              /opt/intelFPGA/18.1/nios2eds/bin/gnu/H-x86_64-pc-linux-gnu/bin/../lib/gcc/nios2-elf/5.3.0/../../../../../H-x86_64-pc-linux-gnu/nios2-elf/lib/mhw-mulx/libc.a(lib_a-svfprintf.o) (__udivdi3)
/opt/intelFPGA/18.1/nios2eds/bin/gnu/H-x86_64-pc-linux-gnu/bin/../lib/gcc/nios2-elf/5.3.0/mhw-mulx/libgcc.a(_umoddi3.o)
                              /opt/intelFPGA/18.1/nios2eds/bin/gnu/H-x86_64-pc-linux-gnu/bin/../lib/gcc/nios2-elf/5.3.0/../../../../../H-x86_64-pc-linux-gnu/nios2-elf/lib/mhw-mulx/libc.a(lib_a-svfprintf.o) (__umoddi3)
/opt/intelFPGA/18.1/nios2eds/bin/gnu/H-x86_64-pc-linux-gnu/bin/../lib/gcc/nios2-elf/5.3.0/mhw-mulx/libgcc.a(lib2-divmod.o)
                              /opt/intelFPGA/18.1/nios2eds/bin/gnu/H-x86_64-pc-linux-gnu/bin/../lib/gcc/nios2-elf/5.3.0/../../../../../H-x86_64-pc-linux-gnu/nios2-elf/lib/mhw-mulx/libc.a(lib_a-svfprintf.o) (__divsi3)
/opt/intelFPGA/18.1/nios2eds/bin/gnu/H-x86_64-pc-linux-gnu/bin/../lib/gcc/nios2-elf/5.3.0/mhw-mulx/libgcc.a(adddf3.o)
                              /opt/intelFPGA/18.1/nios2eds/bin/gnu/H-x86_64-pc-linux-gnu/bin/../lib/gcc/nios2-elf/5.3.0/../../../../../H-x86_64-pc-linux-gnu/nios2-elf/lib/mhw-mulx/libc.a(lib_a-dtoa.o) (__adddf3)
/opt/intelFPGA/18.1/nios2eds/bin/gnu/H-x86_64-pc-linux-gnu/bin/../lib/gcc/nios2-elf/5.3.0/mhw-mulx/libgcc.a(divdf3.o)
                              /opt/intelFPGA/18.1/nios2eds/bin/gnu/H-x86_64-pc-linux-gnu/bin/../lib/gcc/nios2-elf/5.3.0/../../../../../H-x86_64-pc-linux-gnu/nios2-elf/lib/mhw-mulx/libc.a(lib_a-dtoa.o) (__divdf3)
/opt/intelFPGA/18.1/nios2eds/bin/gnu/H-x86_64-pc-linux-gnu/bin/../lib/gcc/nios2-elf/5.3.0/mhw-mulx/libgcc.a(eqdf2.o)
                              /opt/intelFPGA/18.1/nios2eds/bin/gnu/H-x86_64-pc-linux-gnu/bin/../lib/gcc/nios2-elf/5.3.0/../../../../../H-x86_64-pc-linux-gnu/nios2-elf/lib/mhw-mulx/libc.a(lib_a-svfprintf.o) (__eqdf2)
/opt/intelFPGA/18.1/nios2eds/bin/gnu/H-x86_64-pc-linux-gnu/bin/../lib/gcc/nios2-elf/5.3.0/mhw-mulx/libgcc.a(gedf2.o)
                              /opt/intelFPGA/18.1/nios2eds/bin/gnu/H-x86_64-pc-linux-gnu/bin/../lib/gcc/nios2-elf/5.3.0/../../../../../H-x86_64-pc-linux-gnu/nios2-elf/lib/mhw-mulx/libc.a(lib_a-dtoa.o) (__gedf2)
/opt/intelFPGA/18.1/nios2eds/bin/gnu/H-x86_64-pc-linux-gnu/bin/../lib/gcc/nios2-elf/5.3.0/mhw-mulx/libgcc.a(ledf2.o)
                              /opt/intelFPGA/18.1/nios2eds/bin/gnu/H-x86_64-pc-linux-gnu/bin/../lib/gcc/nios2-elf/5.3.0/../../../../../H-x86_64-pc-linux-gnu/nios2-elf/lib/mhw-mulx/libc.a(lib_a-svfprintf.o) (__ltdf2)
/opt/intelFPGA/18.1/nios2eds/bin/gnu/H-x86_64-pc-linux-gnu/bin/../lib/gcc/nios2-elf/5.3.0/mhw-mulx/libgcc.a(muldf3.o)
                              /opt/intelFPGA/18.1/nios2eds/bin/gnu/H-x86_64-pc-linux-gnu/bin/../lib/gcc/nios2-elf/5.3.0/../../../../../H-x86_64-pc-linux-gnu/nios2-elf/lib/mhw-mulx/libc.a(lib_a-dtoa.o) (__muldf3)
/opt/intelFPGA/18.1/nios2eds/bin/gnu/H-x86_64-pc-linux-gnu/bin/../lib/gcc/nios2-elf/5.3.0/mhw-mulx/libgcc.a(subdf3.o)
                              /opt/intelFPGA/18.1/nios2eds/bin/gnu/H-x86_64-pc-linux-gnu/bin/../lib/gcc/nios2-elf/5.3.0/../../../../../H-x86_64-pc-linux-gnu/nios2-elf/lib/mhw-mulx/libc.a(lib_a-dtoa.o) (__subdf3)
/opt/intelFPGA/18.1/nios2eds/bin/gnu/H-x86_64-pc-linux-gnu/bin/../lib/gcc/nios2-elf/5.3.0/mhw-mulx/libgcc.a(fixdfsi.o)
                              /opt/intelFPGA/18.1/nios2eds/bin/gnu/H-x86_64-pc-linux-gnu/bin/../lib/gcc/nios2-elf/5.3.0/../../../../../H-x86_64-pc-linux-gnu/nios2-elf/lib/mhw-mulx/libc.a(lib_a-dtoa.o) (__fixdfsi)
/opt/intelFPGA/18.1/nios2eds/bin/gnu/H-x86_64-pc-linux-gnu/bin/../lib/gcc/nios2-elf/5.3.0/mhw-mulx/libgcc.a(floatsidf.o)
                              /opt/intelFPGA/18.1/nios2eds/bin/gnu/H-x86_64-pc-linux-gnu/bin/../lib/gcc/nios2-elf/5.3.0/../../../../../H-x86_64-pc-linux-gnu/nios2-elf/lib/mhw-mulx/libc.a(lib_a-dtoa.o) (__floatsidf)
/opt/intelFPGA/18.1/nios2eds/bin/gnu/H-x86_64-pc-linux-gnu/bin/../lib/gcc/nios2-elf/5.3.0/mhw-mulx/libgcc.a(floatunsidf.o)
                              /opt/intelFPGA/18.1/nios2eds/bin/gnu/H-x86_64-pc-linux-gnu/bin/../lib/gcc/nios2-elf/5.3.0/../../../../../H-x86_64-pc-linux-gnu/nios2-elf/lib/mhw-mulx/libc.a(lib_a-dtoa.o) (__floatunsidf)
/opt/intelFPGA/18.1/nios2eds/bin/gnu/H-x86_64-pc-linux-gnu/bin/../lib/gcc/nios2-elf/5.3.0/mhw-mulx/libgcc.a(_clz.o)
                              /opt/intelFPGA/18.1/nios2eds/bin/gnu/H-x86_64-pc-linux-gnu/bin/../lib/gcc/nios2-elf/5.3.0/mhw-mulx/libgcc.a(_udivdi3.o) (__clz_tab)
/opt/intelFPGA/18.1/nios2eds/bin/gnu/H-x86_64-pc-linux-gnu/bin/../lib/gcc/nios2-elf/5.3.0/mhw-mulx/libgcc.a(_clzsi2.o)
                              /opt/intelFPGA/18.1/nios2eds/bin/gnu/H-x86_64-pc-linux-gnu/bin/../lib/gcc/nios2-elf/5.3.0/mhw-mulx/libgcc.a(adddf3.o) (__clzsi2)
../ucos2nios2_bsp//libucosii_bsp.a(alt_close.o)
                              /opt/intelFPGA/18.1/nios2eds/bin/gnu/H-x86_64-pc-linux-gnu/bin/../lib/gcc/nios2-elf/5.3.0/../../../../../H-x86_64-pc-linux-gnu/nios2-elf/lib/mhw-mulx/libc.a(closer.o) (close)
../ucos2nios2_bsp//libucosii_bsp.a(alt_dev.o)
                              ../ucos2nios2_bsp//libucosii_bsp.a(alt_close.o) (alt_fd_list)
../ucos2nios2_bsp//libucosii_bsp.a(alt_errno.o)
                              ../ucos2nios2_bsp//libucosii_bsp.a(alt_close.o) (alt_errno)
../ucos2nios2_bsp//libucosii_bsp.a(alt_fstat.o)
                              /opt/intelFPGA/18.1/nios2eds/bin/gnu/H-x86_64-pc-linux-gnu/bin/../lib/gcc/nios2-elf/5.3.0/../../../../../H-x86_64-pc-linux-gnu/nios2-elf/lib/mhw-mulx/libc.a(lib_a-fstatr.o) (fstat)
../ucos2nios2_bsp//libucosii_bsp.a(alt_isatty.o)
                              /opt/intelFPGA/18.1/nios2eds/bin/gnu/H-x86_64-pc-linux-gnu/bin/../lib/gcc/nios2-elf/5.3.0/../../../../../H-x86_64-pc-linux-gnu/nios2-elf/lib/mhw-mulx/libc.a(lib_a-isattyr.o) (isatty)
../ucos2nios2_bsp//libucosii_bsp.a(alt_load.o)
                              ../ucos2nios2_bsp//obj/HAL/src/crt0.o (alt_load)
../ucos2nios2_bsp//libucosii_bsp.a(alt_lseek.o)
                              /opt/intelFPGA/18.1/nios2eds/bin/gnu/H-x86_64-pc-linux-gnu/bin/../lib/gcc/nios2-elf/5.3.0/../../../../../H-x86_64-pc-linux-gnu/nios2-elf/lib/mhw-mulx/libc.a(lib_a-lseekr.o) (lseek)
../ucos2nios2_bsp//libucosii_bsp.a(alt_main.o)
                              ../ucos2nios2_bsp//obj/HAL/src/crt0.o (alt_main)
../ucos2nios2_bsp//libucosii_bsp.a(alt_read.o)
                              /opt/intelFPGA/18.1/nios2eds/bin/gnu/H-x86_64-pc-linux-gnu/bin/../lib/gcc/nios2-elf/5.3.0/../../../../../H-x86_64-pc-linux-gnu/nios2-elf/lib/mhw-mulx/libc.a(lib_a-readr.o) (read)
../ucos2nios2_bsp//libucosii_bsp.a(alt_release_fd.o)
                              ../ucos2nios2_bsp//libucosii_bsp.a(alt_close.o) (alt_release_fd)
../ucos2nios2_bsp//libucosii_bsp.a(alt_sbrk.o)
                              /opt/intelFPGA/18.1/nios2eds/bin/gnu/H-x86_64-pc-linux-gnu/bin/../lib/gcc/nios2-elf/5.3.0/../../../../../H-x86_64-pc-linux-gnu/nios2-elf/lib/mhw-mulx/libc.a(lib_a-sbrkr.o) (sbrk)
../ucos2nios2_bsp//libucosii_bsp.a(alt_write.o)
                              /opt/intelFPGA/18.1/nios2eds/bin/gnu/H-x86_64-pc-linux-gnu/bin/../lib/gcc/nios2-elf/5.3.0/../../../../../H-x86_64-pc-linux-gnu/nios2-elf/lib/mhw-mulx/libc.a(lib_a-writer.o) (write)
../ucos2nios2_bsp//libucosii_bsp.a(alt_env_lock.o)
                              ../ucos2nios2_bsp//libucosii_bsp.a(alt_main.o) (alt_envsem)
../ucos2nios2_bsp//libucosii_bsp.a(alt_malloc_lock.o)
                              ../ucos2nios2_bsp//libucosii_bsp.a(alt_main.o) (alt_heapsem)
../ucos2nios2_bsp//libucosii_bsp.a(os_core.o)
                              ../ucos2nios2_bsp//libucosii_bsp.a(alt_malloc_lock.o) (OSRunning)
../ucos2nios2_bsp//libucosii_bsp.a(os_dbg.o)
                              ../ucos2nios2_bsp//libucosii_bsp.a(os_core.o) (OSDebugInit)
../ucos2nios2_bsp//libucosii_bsp.a(os_flag.o)
                              obj/default/pong.o (OSFlagAccept)
../ucos2nios2_bsp//libucosii_bsp.a(os_mbox.o)
                              obj/default/pong.o (OSMboxAccept)
../ucos2nios2_bsp//libucosii_bsp.a(os_mem.o)
                              ../ucos2nios2_bsp//libucosii_bsp.a(os_core.o) (OS_MemInit)
../ucos2nios2_bsp//libucosii_bsp.a(os_q.o)
                              ../ucos2nios2_bsp//libucosii_bsp.a(os_core.o) (OS_QInit)
../ucos2nios2_bsp//libucosii_bsp.a(os_sem.o)
                              ../ucos2nios2_bsp//libucosii_bsp.a(alt_main.o) (OSSemCreate)
../ucos2nios2_bsp//libucosii_bsp.a(os_task.o)
                              obj/default/pong.o (OSTaskCreateExt)
../ucos2nios2_bsp//libucosii_bsp.a(os_time.o)
                              ../ucos2nios2_bsp//libucosii_bsp.a(os_core.o) (OSTimeDly)
../ucos2nios2_bsp//libucosii_bsp.a(alt_sys_init.o)
                              ../ucos2nios2_bsp//libucosii_bsp.a(alt_main.o) (alt_irq_init)
../ucos2nios2_bsp//libucosii_bsp.a(Altera_UP_SD_Card_Avalon_Interface.o)
                              obj/default/pong.o (alt_up_sd_card_is_Present)
../ucos2nios2_bsp//libucosii_bsp.a(altera_avalon_jtag_uart_fd.o)
                              ../ucos2nios2_bsp//libucosii_bsp.a(alt_sys_init.o) (altera_avalon_jtag_uart_read_fd)
../ucos2nios2_bsp//libucosii_bsp.a(altera_avalon_jtag_uart_init.o)
                              ../ucos2nios2_bsp//libucosii_bsp.a(alt_sys_init.o) (altera_avalon_jtag_uart_init)
../ucos2nios2_bsp//libucosii_bsp.a(altera_avalon_jtag_uart_ioctl.o)
                              ../ucos2nios2_bsp//libucosii_bsp.a(altera_avalon_jtag_uart_fd.o) (altera_avalon_jtag_uart_ioctl)
../ucos2nios2_bsp//libucosii_bsp.a(altera_avalon_jtag_uart_read.o)
                              ../ucos2nios2_bsp//libucosii_bsp.a(altera_avalon_jtag_uart_fd.o) (altera_avalon_jtag_uart_read)
../ucos2nios2_bsp//libucosii_bsp.a(altera_avalon_jtag_uart_write.o)
                              ../ucos2nios2_bsp//libucosii_bsp.a(altera_avalon_jtag_uart_fd.o) (altera_avalon_jtag_uart_write)
../ucos2nios2_bsp//libucosii_bsp.a(altera_avalon_timer_sc.o)
                              ../ucos2nios2_bsp//libucosii_bsp.a(alt_sys_init.o) (alt_avalon_timer_sc_init)
../ucos2nios2_bsp//libucosii_bsp.a(altera_up_avalon_audio.o)
                              obj/default/pong.o (alt_up_audio_open_dev)
../ucos2nios2_bsp//libucosii_bsp.a(altera_up_avalon_character_lcd.o)
                              ../ucos2nios2_bsp//libucosii_bsp.a(alt_sys_init.o) (alt_up_character_lcd_init)
../ucos2nios2_bsp//libucosii_bsp.a(altera_up_avalon_irda.o)
                              ../ucos2nios2_bsp//libucosii_bsp.a(alt_sys_init.o) (alt_up_irda_read_fd)
../ucos2nios2_bsp//libucosii_bsp.a(altera_up_avalon_ps2.o)
                              ../ucos2nios2_bsp//libucosii_bsp.a(alt_sys_init.o) (alt_up_ps2_init)
../ucos2nios2_bsp//libucosii_bsp.a(altera_up_avalon_rs232.o)
                              ../ucos2nios2_bsp//libucosii_bsp.a(alt_sys_init.o) (alt_up_rs232_read_fd)
../ucos2nios2_bsp//libucosii_bsp.a(altera_up_ps2_keyboard.o)
                              obj/default/pong.o (decode_scancode)
../ucos2nios2_bsp//libucosii_bsp.a(alt_alarm_start.o)
                              ../ucos2nios2_bsp//libucosii_bsp.a(altera_avalon_jtag_uart_init.o) (alt_alarm_start)
../ucos2nios2_bsp//libucosii_bsp.a(alt_dcache_flush_all.o)
                              ../ucos2nios2_bsp//libucosii_bsp.a(alt_load.o) (alt_dcache_flush_all)
../ucos2nios2_bsp//libucosii_bsp.a(alt_dev_llist_insert.o)
                              ../ucos2nios2_bsp//libucosii_bsp.a(alt_sys_init.o) (alt_dev_llist_insert)
../ucos2nios2_bsp//libucosii_bsp.a(alt_do_ctors.o)
                              ../ucos2nios2_bsp//libucosii_bsp.a(alt_main.o) (_do_ctors)
../ucos2nios2_bsp//libucosii_bsp.a(alt_do_dtors.o)
                              ../ucos2nios2_bsp//libucosii_bsp.a(alt_main.o) (_do_dtors)
../ucos2nios2_bsp//libucosii_bsp.a(alt_find_dev.o)
                              ../ucos2nios2_bsp//libucosii_bsp.a(Altera_UP_SD_Card_Avalon_Interface.o) (alt_find_dev)
../ucos2nios2_bsp//libucosii_bsp.a(alt_icache_flush_all.o)
                              ../ucos2nios2_bsp//libucosii_bsp.a(alt_load.o) (alt_icache_flush_all)
../ucos2nios2_bsp//libucosii_bsp.a(alt_io_redirect.o)
                              ../ucos2nios2_bsp//libucosii_bsp.a(alt_main.o) (alt_io_redirect)
../ucos2nios2_bsp//libucosii_bsp.a(alt_irq_register.o)
                              ../ucos2nios2_bsp//libucosii_bsp.a(altera_avalon_jtag_uart_init.o) (alt_irq_register)
../ucos2nios2_bsp//libucosii_bsp.a(alt_irq_vars.o)
                              ../ucos2nios2_bsp//libucosii_bsp.a(alt_irq_register.o) (alt_irq_active)
../ucos2nios2_bsp//libucosii_bsp.a(alt_open.o)
                              ../ucos2nios2_bsp//libucosii_bsp.a(alt_io_redirect.o) (open)
../ucos2nios2_bsp//libucosii_bsp.a(alt_tick.o)
                              ../ucos2nios2_bsp//libucosii_bsp.a(altera_avalon_jtag_uart_init.o) (_alt_tick_rate)
../ucos2nios2_bsp//libucosii_bsp.a(altera_nios2_gen2_irq.o)
                              ../ucos2nios2_bsp//libucosii_bsp.a(alt_sys_init.o) (altera_nios2_gen2_irq_init)
../ucos2nios2_bsp//libucosii_bsp.a(os_cpu_a.o)
                              ../ucos2nios2_bsp//libucosii_bsp.a(os_core.o) (OSIntCtxSw)
../ucos2nios2_bsp//libucosii_bsp.a(os_cpu_c.o)
                              ../ucos2nios2_bsp//libucosii_bsp.a(os_task.o) (OSTaskStkInit)
../ucos2nios2_bsp//libucosii_bsp.a(alt_find_file.o)
                              ../ucos2nios2_bsp//libucosii_bsp.a(alt_open.o) (alt_find_file)
../ucos2nios2_bsp//libucosii_bsp.a(alt_get_fd.o)
                              ../ucos2nios2_bsp//libucosii_bsp.a(alt_open.o) (alt_get_fd)
../ucos2nios2_bsp//libucosii_bsp.a(alt_icache_flush.o)
                              ../ucos2nios2_bsp//libucosii_bsp.a(alt_icache_flush_all.o) (alt_icache_flush)
../ucos2nios2_bsp//libucosii_bsp.a(alt_irq_entry.o)
                              ../ucos2nios2_bsp//libucosii_bsp.a(alt_irq_register.o) (alt_irq_entry)
../ucos2nios2_bsp//libucosii_bsp.a(alt_irq_handler.o)
                              ../ucos2nios2_bsp//libucosii_bsp.a(alt_irq_register.o) (alt_irq)
../ucos2nios2_bsp//libucosii_bsp.a(alt_exception_entry.o)
                              ../ucos2nios2_bsp//libucosii_bsp.a(alt_irq_entry.o) (alt_exception)
../ucos2nios2_bsp//libucosii_bsp.a(alt_instruction_exception_entry.o)
                              ../ucos2nios2_bsp//libucosii_bsp.a(alt_exception_entry.o) (alt_instruction_exception_entry)
/opt/intelFPGA/18.1/nios2eds/bin/gnu/H-x86_64-pc-linux-gnu/bin/../lib/gcc/nios2-elf/5.3.0/../../../../../H-x86_64-pc-linux-gnu/nios2-elf/lib/mhw-mulx/libc.a(lib_a-atexit.o)
                              ../ucos2nios2_bsp//libucosii_bsp.a(alt_main.o) (atexit)
/opt/intelFPGA/18.1/nios2eds/bin/gnu/H-x86_64-pc-linux-gnu/bin/../lib/gcc/nios2-elf/5.3.0/../../../../../H-x86_64-pc-linux-gnu/nios2-elf/lib/mhw-mulx/libc.a(lib_a-exit.o)
                              ../ucos2nios2_bsp//libucosii_bsp.a(alt_main.o) (exit)
/opt/intelFPGA/18.1/nios2eds/bin/gnu/H-x86_64-pc-linux-gnu/bin/../lib/gcc/nios2-elf/5.3.0/../../../../../H-x86_64-pc-linux-gnu/nios2-elf/lib/mhw-mulx/libc.a(lib_a-memcmp.o)
                              ../ucos2nios2_bsp//libucosii_bsp.a(alt_find_dev.o) (memcmp)
/opt/intelFPGA/18.1/nios2eds/bin/gnu/H-x86_64-pc-linux-gnu/bin/../lib/gcc/nios2-elf/5.3.0/../../../../../H-x86_64-pc-linux-gnu/nios2-elf/lib/mhw-mulx/libc.a(lib_a-__atexit.o)
                              /opt/intelFPGA/18.1/nios2eds/bin/gnu/H-x86_64-pc-linux-gnu/bin/../lib/gcc/nios2-elf/5.3.0/../../../../../H-x86_64-pc-linux-gnu/nios2-elf/lib/mhw-mulx/libc.a(lib_a-atexit.o) (__register_exitproc)
/opt/intelFPGA/18.1/nios2eds/bin/gnu/H-x86_64-pc-linux-gnu/bin/../lib/gcc/nios2-elf/5.3.0/../../../../../H-x86_64-pc-linux-gnu/nios2-elf/lib/mhw-mulx/libc.a(lib_a-__call_atexit.o)
                              /opt/intelFPGA/18.1/nios2eds/bin/gnu/H-x86_64-pc-linux-gnu/bin/../lib/gcc/nios2-elf/5.3.0/../../../../../H-x86_64-pc-linux-gnu/nios2-elf/lib/mhw-mulx/libc.a(lib_a-exit.o) (__call_exitprocs)
../ucos2nios2_bsp//libucosii_bsp.a(alt_exit.o)
                              /opt/intelFPGA/18.1/nios2eds/bin/gnu/H-x86_64-pc-linux-gnu/bin/../lib/gcc/nios2-elf/5.3.0/../../../../../H-x86_64-pc-linux-gnu/nios2-elf/lib/mhw-mulx/libc.a(lib_a-exit.o) (_exit)

Allocating common symbols
Common symbol       size              file

alt_irq             0x100             ../ucos2nios2_bsp//libucosii_bsp.a(alt_irq_handler.o)
task1_stk           0x2000            obj/default/pong.o
OSLockNesting       0x1               ../ucos2nios2_bsp//libucosii_bsp.a(os_core.o)
OSRunning           0x1               ../ucos2nios2_bsp//libucosii_bsp.a(os_core.o)
OSIdleCtr           0x4               ../ucos2nios2_bsp//libucosii_bsp.a(os_core.o)
OSPrioHighRdy       0x1               ../ucos2nios2_bsp//libucosii_bsp.a(os_core.o)
errno               0x4               /opt/intelFPGA/18.1/nios2eds/bin/gnu/H-x86_64-pc-linux-gnu/bin/../lib/gcc/nios2-elf/5.3.0/../../../../../H-x86_64-pc-linux-gnu/nios2-elf/lib/mhw-mulx/libc.a(lib_a-int_errno.o)
alt_heapsem         0x4               ../ucos2nios2_bsp//libucosii_bsp.a(alt_malloc_lock.o)
GameSpeedMbox       0x4               obj/default/pong.o
OSFlagTbl           0x370             ../ucos2nios2_bsp//libucosii_bsp.a(os_core.o)
keyboard            0x4               obj/default/pong.o
OSPrioCur           0x1               ../ucos2nios2_bsp//libucosii_bsp.a(os_core.o)
Score2Mbox          0x4               obj/default/pong.o
OSTCBList           0x4               ../ucos2nios2_bsp//libucosii_bsp.a(os_core.o)
alt_fd_list_lock    0x4               ../ucos2nios2_bsp//libucosii_bsp.a(alt_dev.o)
OSMemTbl            0xc30             ../ucos2nios2_bsp//libucosii_bsp.a(os_core.o)
OSTickStepState     0x1               ../ucos2nios2_bsp//libucosii_bsp.a(os_core.o)
audio_dev           0x4               obj/default/pong.o
OSTaskStatStk       0x800             ../ucos2nios2_bsp//libucosii_bsp.a(os_core.o)
OSCtxSwCtr          0x4               ../ucos2nios2_bsp//libucosii_bsp.a(os_core.o)
gameFlag            0x2               obj/default/pong.o
OSIdleCtrMax        0x4               ../ucos2nios2_bsp//libucosii_bsp.a(os_core.o)
paddle_stk          0x2000            obj/default/pong.o
OSTCBFreeList       0x4               ../ucos2nios2_bsp//libucosii_bsp.a(os_core.o)
SemBallSpeed        0x4               obj/default/pong.o
r_buf               0x30d40           obj/default/pong.o
OSCPUUsage          0x1               ../ucos2nios2_bsp//libucosii_bsp.a(os_core.o)
OSTaskCtr           0x1               ../ucos2nios2_bsp//libucosii_bsp.a(os_core.o)
OSMemFreeList       0x4               ../ucos2nios2_bsp//libucosii_bsp.a(os_core.o)
search_data         0x14              ../ucos2nios2_bsp//libucosii_bsp.a(Altera_UP_SD_Card_Avalon_Interface.o)
decode_mode         0x4               obj/default/pong.o
OSQTbl              0x1e0             ../ucos2nios2_bsp//libucosii_bsp.a(os_core.o)
boot_sector_data    0x54              ../ucos2nios2_bsp//libucosii_bsp.a(Altera_UP_SD_Card_Avalon_Interface.o)
OSTCBHighRdy        0x4               ../ucos2nios2_bsp//libucosii_bsp.a(os_core.o)
OSQFreeList         0x4               ../ucos2nios2_bsp//libucosii_bsp.a(os_core.o)
OSRdyGrp            0x1               ../ucos2nios2_bsp//libucosii_bsp.a(os_core.o)
Score1Mbox          0x4               obj/default/pong.o
task2_stk           0x2000            obj/default/pong.o
OSRdyTbl            0x3               ../ucos2nios2_bsp//libucosii_bsp.a(os_core.o)
ascii               0x1               obj/default/pong.o
buf                 0x1               obj/default/pong.o
OSEventFreeList     0x4               ../ucos2nios2_bsp//libucosii_bsp.a(os_core.o)
ball                0x14              obj/default/pong.o
GameStatus          0x4               obj/default/pong.o
active_files        0x500             ../ucos2nios2_bsp//libucosii_bsp.a(Altera_UP_SD_Card_Avalon_Interface.o)
OSIntNesting        0x1               ../ucos2nios2_bsp//libucosii_bsp.a(os_core.o)
l_buf               0x30d40           obj/default/pong.o
OSTCBCur            0x4               ../ucos2nios2_bsp//libucosii_bsp.a(os_core.o)
sd_card             0x4               obj/default/pong.o
ball_stk            0x2000            obj/default/pong.o
inputStr            0x4               obj/default/pong.o
OSTime              0x4               ../ucos2nios2_bsp//libucosii_bsp.a(os_core.o)
OSTaskIdleStk       0x800             ../ucos2nios2_bsp//libucosii_bsp.a(os_core.o)
OSEventTbl          0xb40             ../ucos2nios2_bsp//libucosii_bsp.a(os_core.o)
OSTCBTbl            0x510             ../ucos2nios2_bsp//libucosii_bsp.a(os_core.o)
score_stk           0x2000            obj/default/pong.o
OSFlagFreeList      0x4               ../ucos2nios2_bsp//libucosii_bsp.a(os_core.o)
OSStatRdy           0x1               ../ucos2nios2_bsp//libucosii_bsp.a(os_core.o)
OSTCBPrioTbl        0x54              ../ucos2nios2_bsp//libucosii_bsp.a(os_core.o)
alt_envsem          0x4               ../ucos2nios2_bsp//libucosii_bsp.a(alt_env_lock.o)
OSIdleCtrRun        0x4               ../ucos2nios2_bsp//libucosii_bsp.a(os_core.o)

Memory Configuration

Name             Origin             Length             Attributes
reset            0x0000000000000000 0x0000000000000020
SDRAM            0x0000000000000020 0x0000000003ffffe0
VGA_Subsystem_Char_Buf_Subsystem_Onchip_SRAM 0x0000000009000000 0x0000000000002000
*default*        0x0000000000000000 0xffffffffffffffff

Linker script and memory map

LOAD ../ucos2nios2_bsp//obj/HAL/src/crt0.o
LOAD obj/default/pong.o
LOAD obj/default/vga_stuff.o
LOAD /opt/intelFPGA/18.1/nios2eds/bin/gnu/H-x86_64-pc-linux-gnu/bin/../lib/gcc/nios2-elf/5.3.0/../../../../../H-x86_64-pc-linux-gnu/nios2-elf/lib/mhw-mulx/libstdc++.a
LOAD /opt/intelFPGA/18.1/nios2eds/bin/gnu/H-x86_64-pc-linux-gnu/bin/../lib/gcc/nios2-elf/5.3.0/../../../../../H-x86_64-pc-linux-gnu/nios2-elf/lib/mhw-mulx/libm.a
LOAD /opt/intelFPGA/18.1/nios2eds/bin/gnu/H-x86_64-pc-linux-gnu/bin/../lib/gcc/nios2-elf/5.3.0/mhw-mulx/libgcc.a
START GROUP
LOAD /opt/intelFPGA/18.1/nios2eds/bin/gnu/H-x86_64-pc-linux-gnu/bin/../lib/gcc/nios2-elf/5.3.0/../../../../../H-x86_64-pc-linux-gnu/nios2-elf/lib/mhw-mulx/libc.a
LOAD /opt/intelFPGA/18.1/nios2eds/bin/gnu/H-x86_64-pc-linux-gnu/bin/../lib/gcc/nios2-elf/5.3.0/mhw-mulx/libgcc.a
LOAD ../ucos2nios2_bsp//libucosii_bsp.a
LOAD /opt/intelFPGA/18.1/nios2eds/bin/gnu/H-x86_64-pc-linux-gnu/bin/../lib/gcc/nios2-elf/5.3.0/../../../../../H-x86_64-pc-linux-gnu/nios2-elf/lib/mhw-mulx/libm.a
END GROUP
LOAD /opt/intelFPGA/18.1/nios2eds/bin/gnu/H-x86_64-pc-linux-gnu/bin/../lib/gcc/nios2-elf/5.3.0/mhw-mulx/libgcc.a
                0x0000000000000000                __alt_mem_SDRAM = 0x0
                0x0000000009000000                __alt_mem_VGA_Subsystem_Char_Buf_Subsystem_Onchip_SRAM = 0x9000000

.entry          0x0000000000000000       0x20
 *(.entry)
 .entry         0x0000000000000000       0x20 ../ucos2nios2_bsp//obj/HAL/src/crt0.o
                0x0000000000000000                __reset

.exceptions     0x0000000000000020      0x228
                0x0000000000000020                PROVIDE (__ram_exceptions_start, ABSOLUTE (.))
                0x0000000000000020                . = ALIGN (0x20)
 *(.irq)
 *(.exceptions.entry.label)
 .exceptions.entry.label
                0x0000000000000020        0x0 ../ucos2nios2_bsp//libucosii_bsp.a(alt_irq_entry.o)
                0x0000000000000020                alt_irq_entry
 .exceptions.entry.label
                0x0000000000000020        0x0 ../ucos2nios2_bsp//libucosii_bsp.a(alt_exception_entry.o)
                0x0000000000000020                alt_exception
 *(.exceptions.entry.user)
 *(.exceptions.entry.ecc_fatal)
 *(.exceptions.entry)
 .exceptions.entry
                0x0000000000000020       0x54 ../ucos2nios2_bsp//libucosii_bsp.a(alt_exception_entry.o)
 *(.exceptions.irqtest.user)
 *(.exceptions.irqtest)
 .exceptions.irqtest
                0x0000000000000074       0x10 ../ucos2nios2_bsp//libucosii_bsp.a(alt_irq_entry.o)
 *(.exceptions.irqhandler.user)
 *(.exceptions.irqhandler)
 .exceptions.irqhandler
                0x0000000000000084        0x4 ../ucos2nios2_bsp//libucosii_bsp.a(alt_irq_entry.o)
 *(.exceptions.irqreturn.user)
 *(.exceptions.irqreturn)
 .exceptions.irqreturn
                0x0000000000000088        0x4 ../ucos2nios2_bsp//libucosii_bsp.a(alt_irq_entry.o)
 *(.exceptions.notirq.label)
 .exceptions.notirq.label
                0x000000000000008c        0x0 ../ucos2nios2_bsp//libucosii_bsp.a(alt_irq_entry.o)
 *(.exceptions.notirq.user)
 *(.exceptions.notirq)
 .exceptions.notirq
                0x000000000000008c        0x8 ../ucos2nios2_bsp//libucosii_bsp.a(alt_exception_entry.o)
 *(.exceptions.soft.user)
 *(.exceptions.soft)
 *(.exceptions.unknown.user)
 *(.exceptions.unknown)
 .exceptions.unknown
                0x0000000000000094       0x14 ../ucos2nios2_bsp//libucosii_bsp.a(alt_exception_entry.o)
 *(.exceptions.exit.label)
 .exceptions.exit.label
                0x00000000000000a8        0x0 ../ucos2nios2_bsp//libucosii_bsp.a(alt_irq_entry.o)
 .exceptions.exit.label
                0x00000000000000a8        0x0 ../ucos2nios2_bsp//libucosii_bsp.a(alt_exception_entry.o)
 *(.exceptions.exit.user)
 *(.exceptions.exit)
 .exceptions.exit
                0x00000000000000a8       0x54 ../ucos2nios2_bsp//libucosii_bsp.a(alt_exception_entry.o)
 *(.exceptions)
 .exceptions    0x00000000000000fc       0xd8 ../ucos2nios2_bsp//libucosii_bsp.a(alt_irq_handler.o)
                0x00000000000000fc                alt_irq_handler
 .exceptions    0x00000000000001d4       0x74 ../ucos2nios2_bsp//libucosii_bsp.a(alt_instruction_exception_entry.o)
                0x00000000000001d4                alt_instruction_exception_entry
                0x0000000000000248                PROVIDE (__ram_exceptions_end, ABSOLUTE (.))
                0x0000000000000020                PROVIDE (__flash_exceptions_start, LOADADDR (.exceptions))

.text           0x0000000000000248    0x24150
                [!provide]                        PROVIDE (stext, ABSOLUTE (.))
 *(.interp)
 *(.hash)
 *(.dynsym)
 *(.dynstr)
 *(.gnu.version)
 *(.gnu.version_d)
 *(.gnu.version_r)
 *(.rel.init)
 *(.rela.init)
 *(.rel.text .rel.text.* .rel.gnu.linkonce.t.*)
 *(.rela.text .rela.text.* .rela.gnu.linkonce.t.*)
 *(.rel.fini)
 *(.rela.fini)
 *(.rel.rodata .rel.rodata.* .rel.gnu.linkonce.r.*)
 *(.rela.rodata .rela.rodata.* .rela.gnu.linkonce.r.*)
 *(.rel.data .rel.data.* .rel.gnu.linkonce.d.*)
 *(.rela.data .rela.data.* .rela.gnu.linkonce.d.*)
 *(.rel.tdata .rel.tdata.* .rel.gnu.linkonce.td.*)
 *(.rela.tdata .rela.tdata.* .rela.gnu.linkonce.td.*)
 *(.rel.tbss .rel.tbss.* .rel.gnu.linkonce.tb.*)
 *(.rela.tbss .rela.tbss.* .rela.gnu.linkonce.tb.*)
 *(.rel.ctors)
 *(.rela.ctors)
 *(.rel.dtors)
 *(.rela.dtors)
 *(.rel.got)
 *(.rela.got)
 *(.rel.sdata .rel.sdata.* .rel.gnu.linkonce.s.*)
 *(.rela.sdata .rela.sdata.* .rela.gnu.linkonce.s.*)
 *(.rel.sbss .rel.sbss.* .rel.gnu.linkonce.sb.*)
 *(.rela.sbss .rela.sbss.* .rela.gnu.linkonce.sb.*)
 *(.rel.sdata2 .rel.sdata2.* .rel.gnu.linkonce.s2.*)
 *(.rela.sdata2 .rela.sdata2.* .rela.gnu.linkonce.s2.*)
 *(.rel.sbss2 .rel.sbss2.* .rel.gnu.linkonce.sb2.*)
 *(.rela.sbss2 .rela.sbss2.* .rela.gnu.linkonce.sb2.*)
 *(.rel.bss .rel.bss.* .rel.gnu.linkonce.b.*)
 *(.rela.bss .rela.bss.* .rela.gnu.linkonce.b.*)
 *(.rel.plt)
 *(.rela.plt)
 *(.rel.dyn)
 *(.init)
 *(.plt)
 *(.text .stub .text.* .gnu.linkonce.t.*)
 .text          0x0000000000000248       0x3c ../ucos2nios2_bsp//obj/HAL/src/crt0.o
                0x0000000000000248                _start
 .text          0x0000000000000284     0x178c obj/default/pong.o
                0x0000000000000284                start_screen
                0x0000000000000394                GameStateTask
                0x000000000000051c                IOTask
                0x00000000000005f0                PaddleTask
                0x000000000000096c                collide_wall
                0x0000000000000a28                collide_paddle
                0x0000000000000b34                ball_movement
                0x0000000000000d70                BallTask
                0x0000000000001034                ScoreTask
                0x0000000000001238                find_files
                0x00000000000014ec                init_audio
                0x0000000000001548                init_sd_card
                0x00000000000015d8                readWavFile
                0x00000000000017ac                playBuffer
                0x0000000000001860                main
 .text          0x0000000000001a10      0x918 obj/default/vga_stuff.o
                0x0000000000001a10                wait_for_vsync
                0x0000000000001a60                clear_screen
                0x0000000000001b00                LCD_clear
                0x0000000000001b2c                helper_plot_pixel
                0x0000000000001b88                drawCircle
                0x0000000000001ec4                circleBres
                0x0000000000001fd8                draw_line
                0x00000000000021bc                VGA_text
                0x0000000000002248                VGA_pixel
                0x00000000000022b0                VGA_clear
 .text          0x0000000000002328        0x0 /opt/intelFPGA/18.1/nios2eds/bin/gnu/H-x86_64-pc-linux-gnu/bin/../lib/gcc/nios2-elf/5.3.0/../../../../../H-x86_64-pc-linux-gnu/nios2-elf/lib/mhw-mulx/libc.a(lib_a-malloc.o)
 .text.malloc   0x0000000000002328       0x14 /opt/intelFPGA/18.1/nios2eds/bin/gnu/H-x86_64-pc-linux-gnu/bin/../lib/gcc/nios2-elf/5.3.0/../../../../../H-x86_64-pc-linux-gnu/nios2-elf/lib/mhw-mulx/libc.a(lib_a-malloc.o)
                0x0000000000002328                malloc
 .text.free     0x000000000000233c       0x14 /opt/intelFPGA/18.1/nios2eds/bin/gnu/H-x86_64-pc-linux-gnu/bin/../lib/gcc/nios2-elf/5.3.0/../../../../../H-x86_64-pc-linux-gnu/nios2-elf/lib/mhw-mulx/libc.a(lib_a-malloc.o)
                0x000000000000233c                free
 .text          0x0000000000002350        0x0 /opt/intelFPGA/18.1/nios2eds/bin/gnu/H-x86_64-pc-linux-gnu/bin/../lib/gcc/nios2-elf/5.3.0/../../../../../H-x86_64-pc-linux-gnu/nios2-elf/lib/mhw-mulx/libc.a(lib_a-mallocr.o)
 .text._malloc_r
                0x0000000000002350      0x80c /opt/intelFPGA/18.1/nios2eds/bin/gnu/H-x86_64-pc-linux-gnu/bin/../lib/gcc/nios2-elf/5.3.0/../../../../../H-x86_64-pc-linux-gnu/nios2-elf/lib/mhw-mulx/libc.a(lib_a-mallocr.o)
                0x0000000000002350                _malloc_r
 .text          0x0000000000002b5c        0x0 /opt/intelFPGA/18.1/nios2eds/bin/gnu/H-x86_64-pc-linux-gnu/bin/../lib/gcc/nios2-elf/5.3.0/../../../../../H-x86_64-pc-linux-gnu/nios2-elf/lib/mhw-mulx/libc.a(lib_a-printf.o)
 .text._printf_r
                0x0000000000002b5c       0x30 /opt/intelFPGA/18.1/nios2eds/bin/gnu/H-x86_64-pc-linux-gnu/bin/../lib/gcc/nios2-elf/5.3.0/../../../../../H-x86_64-pc-linux-gnu/nios2-elf/lib/mhw-mulx/libc.a(lib_a-printf.o)
                0x0000000000002b5c                _printf_r
 .text.printf   0x0000000000002b8c       0x3c /opt/intelFPGA/18.1/nios2eds/bin/gnu/H-x86_64-pc-linux-gnu/bin/../lib/gcc/nios2-elf/5.3.0/../../../../../H-x86_64-pc-linux-gnu/nios2-elf/lib/mhw-mulx/libc.a(lib_a-printf.o)
                0x0000000000002b8c                printf
 .text          0x0000000000002bc8        0x0 /opt/intelFPGA/18.1/nios2eds/bin/gnu/H-x86_64-pc-linux-gnu/bin/../lib/gcc/nios2-elf/5.3.0/../../../../../H-x86_64-pc-linux-gnu/nios2-elf/lib/mhw-mulx/libc.a(lib_a-puts.o)
 .text._puts_r  0x0000000000002bc8       0xc0 /opt/intelFPGA/18.1/nios2eds/bin/gnu/H-x86_64-pc-linux-gnu/bin/../lib/gcc/nios2-elf/5.3.0/../../../../../H-x86_64-pc-linux-gnu/nios2-elf/lib/mhw-mulx/libc.a(lib_a-puts.o)
                0x0000000000002bc8                _puts_r
 .text.puts     0x0000000000002c88       0x14 /opt/intelFPGA/18.1/nios2eds/bin/gnu/H-x86_64-pc-linux-gnu/bin/../lib/gcc/nios2-elf/5.3.0/../../../../../H-x86_64-pc-linux-gnu/nios2-elf/lib/mhw-mulx/libc.a(lib_a-puts.o)
                0x0000000000002c88                puts
 .text          0x0000000000002c9c        0x0 /opt/intelFPGA/18.1/nios2eds/bin/gnu/H-x86_64-pc-linux-gnu/bin/../lib/gcc/nios2-elf/5.3.0/../../../../../H-x86_64-pc-linux-gnu/nios2-elf/lib/mhw-mulx/libc.a(lib_a-sbrkr.o)
 .text._sbrk_r  0x0000000000002c9c       0x54 /opt/intelFPGA/18.1/nios2eds/bin/gnu/H-x86_64-pc-linux-gnu/bin/../lib/gcc/nios2-elf/5.3.0/../../../../../H-x86_64-pc-linux-gnu/nios2-elf/lib/mhw-mulx/libc.a(lib_a-sbrkr.o)
                0x0000000000002c9c                _sbrk_r
 .text          0x0000000000002cf0        0x0 /opt/intelFPGA/18.1/nios2eds/bin/gnu/H-x86_64-pc-linux-gnu/bin/../lib/gcc/nios2-elf/5.3.0/../../../../../H-x86_64-pc-linux-gnu/nios2-elf/lib/mhw-mulx/libc.a(lib_a-snprintf.o)
 .text._snprintf_r
                0x0000000000002cf0       0xd8 /opt/intelFPGA/18.1/nios2eds/bin/gnu/H-x86_64-pc-linux-gnu/bin/../lib/gcc/nios2-elf/5.3.0/../../../../../H-x86_64-pc-linux-gnu/nios2-elf/lib/mhw-mulx/libc.a(lib_a-snprintf.o)
                0x0000000000002cf0                _snprintf_r
 .text.snprintf
                0x0000000000002dc8       0xe4 /opt/intelFPGA/18.1/nios2eds/bin/gnu/H-x86_64-pc-linux-gnu/bin/../lib/gcc/nios2-elf/5.3.0/../../../../../H-x86_64-pc-linux-gnu/nios2-elf/lib/mhw-mulx/libc.a(lib_a-snprintf.o)
                0x0000000000002dc8                snprintf
 .text          0x0000000000002eac        0x0 /opt/intelFPGA/18.1/nios2eds/bin/gnu/H-x86_64-pc-linux-gnu/bin/../lib/gcc/nios2-elf/5.3.0/../../../../../H-x86_64-pc-linux-gnu/nios2-elf/lib/mhw-mulx/libc.a(lib_a-strcat.o)
 .text.strcat   0x0000000000002eac       0x84 /opt/intelFPGA/18.1/nios2eds/bin/gnu/H-x86_64-pc-linux-gnu/bin/../lib/gcc/nios2-elf/5.3.0/../../../../../H-x86_64-pc-linux-gnu/nios2-elf/lib/mhw-mulx/libc.a(lib_a-strcat.o)
                0x0000000000002eac                strcat
 .text          0x0000000000002f30        0x0 /opt/intelFPGA/18.1/nios2eds/bin/gnu/H-x86_64-pc-linux-gnu/bin/../lib/gcc/nios2-elf/5.3.0/../../../../../H-x86_64-pc-linux-gnu/nios2-elf/lib/mhw-mulx/libc.a(lib_a-strcpy.o)
 .text.strcpy   0x0000000000002f30       0x90 /opt/intelFPGA/18.1/nios2eds/bin/gnu/H-x86_64-pc-linux-gnu/bin/../lib/gcc/nios2-elf/5.3.0/../../../../../H-x86_64-pc-linux-gnu/nios2-elf/lib/mhw-mulx/libc.a(lib_a-strcpy.o)
                0x0000000000002f30                strcpy
 .text          0x0000000000002fc0        0x0 /opt/intelFPGA/18.1/nios2eds/bin/gnu/H-x86_64-pc-linux-gnu/bin/../lib/gcc/nios2-elf/5.3.0/../../../../../H-x86_64-pc-linux-gnu/nios2-elf/lib/mhw-mulx/libc.a(lib_a-strlen.o)
 .text.strlen   0x0000000000002fc0       0x98 /opt/intelFPGA/18.1/nios2eds/bin/gnu/H-x86_64-pc-linux-gnu/bin/../lib/gcc/nios2-elf/5.3.0/../../../../../H-x86_64-pc-linux-gnu/nios2-elf/lib/mhw-mulx/libc.a(lib_a-strlen.o)
                0x0000000000002fc0                strlen
 .text          0x0000000000003058        0x0 /opt/intelFPGA/18.1/nios2eds/bin/gnu/H-x86_64-pc-linux-gnu/bin/../lib/gcc/nios2-elf/5.3.0/../../../../../H-x86_64-pc-linux-gnu/nios2-elf/lib/mhw-mulx/libc.a(lib_a-svfprintf.o)
 .text.___svfprintf_internal_r
                0x0000000000003058     0x21d8 /opt/intelFPGA/18.1/nios2eds/bin/gnu/H-x86_64-pc-linux-gnu/bin/../lib/gcc/nios2-elf/5.3.0/../../../../../H-x86_64-pc-linux-gnu/nios2-elf/lib/mhw-mulx/libc.a(lib_a-svfprintf.o)
                0x0000000000003058                ___svfprintf_internal_r
 .text          0x0000000000005230        0x0 /opt/intelFPGA/18.1/nios2eds/bin/gnu/H-x86_64-pc-linux-gnu/bin/../lib/gcc/nios2-elf/5.3.0/../../../../../H-x86_64-pc-linux-gnu/nios2-elf/lib/mhw-mulx/libc.a(lib_a-vfprintf.o)
 .text.___vfprintf_internal_r
                0x0000000000005230     0x21f8 /opt/intelFPGA/18.1/nios2eds/bin/gnu/H-x86_64-pc-linux-gnu/bin/../lib/gcc/nios2-elf/5.3.0/../../../../../H-x86_64-pc-linux-gnu/nios2-elf/lib/mhw-mulx/libc.a(lib_a-vfprintf.o)
                0x0000000000005230                ___vfprintf_internal_r
 .text.__vfprintf_internal
                0x0000000000007428       0x1c /opt/intelFPGA/18.1/nios2eds/bin/gnu/H-x86_64-pc-linux-gnu/bin/../lib/gcc/nios2-elf/5.3.0/../../../../../H-x86_64-pc-linux-gnu/nios2-elf/lib/mhw-mulx/libc.a(lib_a-vfprintf.o)
                0x0000000000007428                __vfprintf_internal
 .text.__sbprintf
                0x0000000000007444       0xbc /opt/intelFPGA/18.1/nios2eds/bin/gnu/H-x86_64-pc-linux-gnu/bin/../lib/gcc/nios2-elf/5.3.0/../../../../../H-x86_64-pc-linux-gnu/nios2-elf/lib/mhw-mulx/libc.a(lib_a-vfprintf.o)
 .text          0x0000000000007500        0x0 /opt/intelFPGA/18.1/nios2eds/bin/gnu/H-x86_64-pc-linux-gnu/bin/../lib/gcc/nios2-elf/5.3.0/../../../../../H-x86_64-pc-linux-gnu/nios2-elf/lib/mhw-mulx/libc.a(lib_a-wsetup.o)
 .text.__swsetup_r
                0x0000000000007500      0x154 /opt/intelFPGA/18.1/nios2eds/bin/gnu/H-x86_64-pc-linux-gnu/bin/../lib/gcc/nios2-elf/5.3.0/../../../../../H-x86_64-pc-linux-gnu/nios2-elf/lib/mhw-mulx/libc.a(lib_a-wsetup.o)
                0x0000000000007500                __swsetup_r
 .text          0x0000000000007654        0x0 /opt/intelFPGA/18.1/nios2eds/bin/gnu/H-x86_64-pc-linux-gnu/bin/../lib/gcc/nios2-elf/5.3.0/../../../../../H-x86_64-pc-linux-gnu/nios2-elf/lib/mhw-mulx/libc.a(lib_a-dtoa.o)
 .text.quorem   0x0000000000007654      0x200 /opt/intelFPGA/18.1/nios2eds/bin/gnu/H-x86_64-pc-linux-gnu/bin/../lib/gcc/nios2-elf/5.3.0/../../../../../H-x86_64-pc-linux-gnu/nios2-elf/lib/mhw-mulx/libc.a(lib_a-dtoa.o)
 .text._dtoa_r  0x0000000000007854     0x1688 /opt/intelFPGA/18.1/nios2eds/bin/gnu/H-x86_64-pc-linux-gnu/bin/../lib/gcc/nios2-elf/5.3.0/../../../../../H-x86_64-pc-linux-gnu/nios2-elf/lib/mhw-mulx/libc.a(lib_a-dtoa.o)
                0x0000000000007854                _dtoa_r
 .text          0x0000000000008edc        0x0 /opt/intelFPGA/18.1/nios2eds/bin/gnu/H-x86_64-pc-linux-gnu/bin/../lib/gcc/nios2-elf/5.3.0/../../../../../H-x86_64-pc-linux-gnu/nios2-elf/lib/mhw-mulx/libc.a(lib_a-fflush.o)
 .text.__sflush_r
                0x0000000000008edc      0x21c /opt/intelFPGA/18.1/nios2eds/bin/gnu/H-x86_64-pc-linux-gnu/bin/../lib/gcc/nios2-elf/5.3.0/../../../../../H-x86_64-pc-linux-gnu/nios2-elf/lib/mhw-mulx/libc.a(lib_a-fflush.o)
                0x0000000000008edc                __sflush_r
 .text._fflush_r
                0x00000000000090f8       0x5c /opt/intelFPGA/18.1/nios2eds/bin/gnu/H-x86_64-pc-linux-gnu/bin/../lib/gcc/nios2-elf/5.3.0/../../../../../H-x86_64-pc-linux-gnu/nios2-elf/lib/mhw-mulx/libc.a(lib_a-fflush.o)
                0x00000000000090f8                _fflush_r
 .text.fflush   0x0000000000009154       0x30 /opt/intelFPGA/18.1/nios2eds/bin/gnu/H-x86_64-pc-linux-gnu/bin/../lib/gcc/nios2-elf/5.3.0/../../../../../H-x86_64-pc-linux-gnu/nios2-elf/lib/mhw-mulx/libc.a(lib_a-fflush.o)
                0x0000000000009154                fflush
 .text          0x0000000000009184        0x0 /opt/intelFPGA/18.1/nios2eds/bin/gnu/H-x86_64-pc-linux-gnu/bin/../lib/gcc/nios2-elf/5.3.0/../../../../../H-x86_64-pc-linux-gnu/nios2-elf/lib/mhw-mulx/libc.a(lib_a-findfp.o)
 .text.__fp_unlock
                0x0000000000009184        0x8 /opt/intelFPGA/18.1/nios2eds/bin/gnu/H-x86_64-pc-linux-gnu/bin/../lib/gcc/nios2-elf/5.3.0/../../../../../H-x86_64-pc-linux-gnu/nios2-elf/lib/mhw-mulx/libc.a(lib_a-findfp.o)
 .text._cleanup_r
                0x000000000000918c        0xc /opt/intelFPGA/18.1/nios2eds/bin/gnu/H-x86_64-pc-linux-gnu/bin/../lib/gcc/nios2-elf/5.3.0/../../../../../H-x86_64-pc-linux-gnu/nios2-elf/lib/mhw-mulx/libc.a(lib_a-findfp.o)
                0x000000000000918c                _cleanup_r
 .text.__sinit.part.1
                0x0000000000009198      0x19c /opt/intelFPGA/18.1/nios2eds/bin/gnu/H-x86_64-pc-linux-gnu/bin/../lib/gcc/nios2-elf/5.3.0/../../../../../H-x86_64-pc-linux-gnu/nios2-elf/lib/mhw-mulx/libc.a(lib_a-findfp.o)
 .text.__fp_lock
                0x0000000000009334        0x8 /opt/intelFPGA/18.1/nios2eds/bin/gnu/H-x86_64-pc-linux-gnu/bin/../lib/gcc/nios2-elf/5.3.0/../../../../../H-x86_64-pc-linux-gnu/nios2-elf/lib/mhw-mulx/libc.a(lib_a-findfp.o)
 .text.__sfmoreglue
                0x000000000000933c       0x68 /opt/intelFPGA/18.1/nios2eds/bin/gnu/H-x86_64-pc-linux-gnu/bin/../lib/gcc/nios2-elf/5.3.0/../../../../../H-x86_64-pc-linux-gnu/nios2-elf/lib/mhw-mulx/libc.a(lib_a-findfp.o)
                0x000000000000933c                __sfmoreglue
 .text.__sfp    0x00000000000093a4      0x118 /opt/intelFPGA/18.1/nios2eds/bin/gnu/H-x86_64-pc-linux-gnu/bin/../lib/gcc/nios2-elf/5.3.0/../../../../../H-x86_64-pc-linux-gnu/nios2-elf/lib/mhw-mulx/libc.a(lib_a-findfp.o)
                0x00000000000093a4                __sfp
 .text._cleanup
                0x00000000000094bc       0x18 /opt/intelFPGA/18.1/nios2eds/bin/gnu/H-x86_64-pc-linux-gnu/bin/../lib/gcc/nios2-elf/5.3.0/../../../../../H-x86_64-pc-linux-gnu/nios2-elf/lib/mhw-mulx/libc.a(lib_a-findfp.o)
                0x00000000000094bc                _cleanup
 .text.__sinit  0x00000000000094d4       0x10 /opt/intelFPGA/18.1/nios2eds/bin/gnu/H-x86_64-pc-linux-gnu/bin/../lib/gcc/nios2-elf/5.3.0/../../../../../H-x86_64-pc-linux-gnu/nios2-elf/lib/mhw-mulx/libc.a(lib_a-findfp.o)
                0x00000000000094d4                __sinit
 .text.__sfp_lock_acquire
                0x00000000000094e4        0x4 /opt/intelFPGA/18.1/nios2eds/bin/gnu/H-x86_64-pc-linux-gnu/bin/../lib/gcc/nios2-elf/5.3.0/../../../../../H-x86_64-pc-linux-gnu/nios2-elf/lib/mhw-mulx/libc.a(lib_a-findfp.o)
                0x00000000000094e4                __sfp_lock_acquire
 .text.__sfp_lock_release
                0x00000000000094e8        0x4 /opt/intelFPGA/18.1/nios2eds/bin/gnu/H-x86_64-pc-linux-gnu/bin/../lib/gcc/nios2-elf/5.3.0/../../../../../H-x86_64-pc-linux-gnu/nios2-elf/lib/mhw-mulx/libc.a(lib_a-findfp.o)
                0x00000000000094e8                __sfp_lock_release
 .text.__sinit_lock_acquire
                0x00000000000094ec        0x4 /opt/intelFPGA/18.1/nios2eds/bin/gnu/H-x86_64-pc-linux-gnu/bin/../lib/gcc/nios2-elf/5.3.0/../../../../../H-x86_64-pc-linux-gnu/nios2-elf/lib/mhw-mulx/libc.a(lib_a-findfp.o)
                0x00000000000094ec                __sinit_lock_acquire
 .text.__sinit_lock_release
                0x00000000000094f0        0x4 /opt/intelFPGA/18.1/nios2eds/bin/gnu/H-x86_64-pc-linux-gnu/bin/../lib/gcc/nios2-elf/5.3.0/../../../../../H-x86_64-pc-linux-gnu/nios2-elf/lib/mhw-mulx/libc.a(lib_a-findfp.o)
                0x00000000000094f0                __sinit_lock_release
 .text.__fp_lock_all
                0x00000000000094f4       0x18 /opt/intelFPGA/18.1/nios2eds/bin/gnu/H-x86_64-pc-linux-gnu/bin/../lib/gcc/nios2-elf/5.3.0/../../../../../H-x86_64-pc-linux-gnu/nios2-elf/lib/mhw-mulx/libc.a(lib_a-findfp.o)
                0x00000000000094f4                __fp_lock_all
 .text.__fp_unlock_all
                0x000000000000950c       0x18 /opt/intelFPGA/18.1/nios2eds/bin/gnu/H-x86_64-pc-linux-gnu/bin/../lib/gcc/nios2-elf/5.3.0/../../../../../H-x86_64-pc-linux-gnu/nios2-elf/lib/mhw-mulx/libc.a(lib_a-findfp.o)
                0x000000000000950c                __fp_unlock_all
 .text          0x0000000000009524        0x0 /opt/intelFPGA/18.1/nios2eds/bin/gnu/H-x86_64-pc-linux-gnu/bin/../lib/gcc/nios2-elf/5.3.0/../../../../../H-x86_64-pc-linux-gnu/nios2-elf/lib/mhw-mulx/libc.a(lib_a-freer.o)
 .text._malloc_trim_r
                0x0000000000009524      0x124 /opt/intelFPGA/18.1/nios2eds/bin/gnu/H-x86_64-pc-linux-gnu/bin/../lib/gcc/nios2-elf/5.3.0/../../../../../H-x86_64-pc-linux-gnu/nios2-elf/lib/mhw-mulx/libc.a(lib_a-freer.o)
                0x0000000000009524                _malloc_trim_r
 .text._free_r  0x0000000000009648      0x310 /opt/intelFPGA/18.1/nios2eds/bin/gnu/H-x86_64-pc-linux-gnu/bin/../lib/gcc/nios2-elf/5.3.0/../../../../../H-x86_64-pc-linux-gnu/nios2-elf/lib/mhw-mulx/libc.a(lib_a-freer.o)
                0x0000000000009648                _free_r
 .text          0x0000000000009958        0x0 /opt/intelFPGA/18.1/nios2eds/bin/gnu/H-x86_64-pc-linux-gnu/bin/../lib/gcc/nios2-elf/5.3.0/../../../../../H-x86_64-pc-linux-gnu/nios2-elf/lib/mhw-mulx/libc.a(lib_a-fvwrite.o)
 .text.__sfvwrite_r
                0x0000000000009958      0x4bc /opt/intelFPGA/18.1/nios2eds/bin/gnu/H-x86_64-pc-linux-gnu/bin/../lib/gcc/nios2-elf/5.3.0/../../../../../H-x86_64-pc-linux-gnu/nios2-elf/lib/mhw-mulx/libc.a(lib_a-fvwrite.o)
                0x0000000000009958                __sfvwrite_r
 .text          0x0000000000009e14        0x0 /opt/intelFPGA/18.1/nios2eds/bin/gnu/H-x86_64-pc-linux-gnu/bin/../lib/gcc/nios2-elf/5.3.0/../../../../../H-x86_64-pc-linux-gnu/nios2-elf/lib/mhw-mulx/libc.a(lib_a-fwalk.o)
 .text._fwalk   0x0000000000009e14       0xc4 /opt/intelFPGA/18.1/nios2eds/bin/gnu/H-x86_64-pc-linux-gnu/bin/../lib/gcc/nios2-elf/5.3.0/../../../../../H-x86_64-pc-linux-gnu/nios2-elf/lib/mhw-mulx/libc.a(lib_a-fwalk.o)
                0x0000000000009e14                _fwalk
 .text._fwalk_reent
                0x0000000000009ed8       0xc4 /opt/intelFPGA/18.1/nios2eds/bin/gnu/H-x86_64-pc-linux-gnu/bin/../lib/gcc/nios2-elf/5.3.0/../../../../../H-x86_64-pc-linux-gnu/nios2-elf/lib/mhw-mulx/libc.a(lib_a-fwalk.o)
                0x0000000000009ed8                _fwalk_reent
 .text          0x0000000000009f9c        0x0 /opt/intelFPGA/18.1/nios2eds/bin/gnu/H-x86_64-pc-linux-gnu/bin/../lib/gcc/nios2-elf/5.3.0/../../../../../H-x86_64-pc-linux-gnu/nios2-elf/lib/mhw-mulx/libc.a(lib_a-impure.o)
 .text          0x0000000000009f9c        0x0 /opt/intelFPGA/18.1/nios2eds/bin/gnu/H-x86_64-pc-linux-gnu/bin/../lib/gcc/nios2-elf/5.3.0/../../../../../H-x86_64-pc-linux-gnu/nios2-elf/lib/mhw-mulx/libc.a(lib_a-int_errno.o)
 .text          0x0000000000009f9c        0x0 /opt/intelFPGA/18.1/nios2eds/bin/gnu/H-x86_64-pc-linux-gnu/bin/../lib/gcc/nios2-elf/5.3.0/../../../../../H-x86_64-pc-linux-gnu/nios2-elf/lib/mhw-mulx/libc.a(lib_a-locale.o)
 .text._setlocale_r
                0x0000000000009f9c       0x7c /opt/intelFPGA/18.1/nios2eds/bin/gnu/H-x86_64-pc-linux-gnu/bin/../lib/gcc/nios2-elf/5.3.0/../../../../../H-x86_64-pc-linux-gnu/nios2-elf/lib/mhw-mulx/libc.a(lib_a-locale.o)
                0x0000000000009f9c                _setlocale_r
 .text.__locale_charset
                0x000000000000a018        0xc /opt/intelFPGA/18.1/nios2eds/bin/gnu/H-x86_64-pc-linux-gnu/bin/../lib/gcc/nios2-elf/5.3.0/../../../../../H-x86_64-pc-linux-gnu/nios2-elf/lib/mhw-mulx/libc.a(lib_a-locale.o)
                0x000000000000a018                __locale_charset
 .text.__locale_mb_cur_max
                0x000000000000a024       0x10 /opt/intelFPGA/18.1/nios2eds/bin/gnu/H-x86_64-pc-linux-gnu/bin/../lib/gcc/nios2-elf/5.3.0/../../../../../H-x86_64-pc-linux-gnu/nios2-elf/lib/mhw-mulx/libc.a(lib_a-locale.o)
                0x000000000000a024                __locale_mb_cur_max
 .text.__locale_msgcharset
                0x000000000000a034        0xc /opt/intelFPGA/18.1/nios2eds/bin/gnu/H-x86_64-pc-linux-gnu/bin/../lib/gcc/nios2-elf/5.3.0/../../../../../H-x86_64-pc-linux-gnu/nios2-elf/lib/mhw-mulx/libc.a(lib_a-locale.o)
                0x000000000000a034                __locale_msgcharset
 .text.__locale_cjk_lang
                0x000000000000a040        0x8 /opt/intelFPGA/18.1/nios2eds/bin/gnu/H-x86_64-pc-linux-gnu/bin/../lib/gcc/nios2-elf/5.3.0/../../../../../H-x86_64-pc-linux-gnu/nios2-elf/lib/mhw-mulx/libc.a(lib_a-locale.o)
                0x000000000000a040                __locale_cjk_lang
 .text._localeconv_r
                0x000000000000a048        0xc /opt/intelFPGA/18.1/nios2eds/bin/gnu/H-x86_64-pc-linux-gnu/bin/../lib/gcc/nios2-elf/5.3.0/../../../../../H-x86_64-pc-linux-gnu/nios2-elf/lib/mhw-mulx/libc.a(lib_a-locale.o)
                0x000000000000a048                _localeconv_r
 .text.setlocale
                0x000000000000a054       0x18 /opt/intelFPGA/18.1/nios2eds/bin/gnu/H-x86_64-pc-linux-gnu/bin/../lib/gcc/nios2-elf/5.3.0/../../../../../H-x86_64-pc-linux-gnu/nios2-elf/lib/mhw-mulx/libc.a(lib_a-locale.o)
                0x000000000000a054                setlocale
 .text.localeconv
                0x000000000000a06c        0xc /opt/intelFPGA/18.1/nios2eds/bin/gnu/H-x86_64-pc-linux-gnu/bin/../lib/gcc/nios2-elf/5.3.0/../../../../../H-x86_64-pc-linux-gnu/nios2-elf/lib/mhw-mulx/libc.a(lib_a-locale.o)
                0x000000000000a06c                localeconv
 .text          0x000000000000a078        0x0 /opt/intelFPGA/18.1/nios2eds/bin/gnu/H-x86_64-pc-linux-gnu/bin/../lib/gcc/nios2-elf/5.3.0/../../../../../H-x86_64-pc-linux-gnu/nios2-elf/lib/mhw-mulx/libc.a(lib_a-makebuf.o)
 .text.__smakebuf_r
                0x000000000000a078      0x1bc /opt/intelFPGA/18.1/nios2eds/bin/gnu/H-x86_64-pc-linux-gnu/bin/../lib/gcc/nios2-elf/5.3.0/../../../../../H-x86_64-pc-linux-gnu/nios2-elf/lib/mhw-mulx/libc.a(lib_a-makebuf.o)
                0x000000000000a078                __smakebuf_r
 .text          0x000000000000a234        0x0 /opt/intelFPGA/18.1/nios2eds/bin/gnu/H-x86_64-pc-linux-gnu/bin/../lib/gcc/nios2-elf/5.3.0/../../../../../H-x86_64-pc-linux-gnu/nios2-elf/lib/mhw-mulx/libc.a(lib_a-memchr.o)
 .text.memchr   0x000000000000a234       0xe4 /opt/intelFPGA/18.1/nios2eds/bin/gnu/H-x86_64-pc-linux-gnu/bin/../lib/gcc/nios2-elf/5.3.0/../../../../../H-x86_64-pc-linux-gnu/nios2-elf/lib/mhw-mulx/libc.a(lib_a-memchr.o)
                0x000000000000a234                memchr
 .text          0x000000000000a318        0x0 /opt/intelFPGA/18.1/nios2eds/bin/gnu/H-x86_64-pc-linux-gnu/bin/../lib/gcc/nios2-elf/5.3.0/../../../../../H-x86_64-pc-linux-gnu/nios2-elf/lib/mhw-mulx/libc.a(lib_a-memcpy.o)
 .text.memcpy   0x000000000000a318      0x148 /opt/intelFPGA/18.1/nios2eds/bin/gnu/H-x86_64-pc-linux-gnu/bin/../lib/gcc/nios2-elf/5.3.0/../../../../../H-x86_64-pc-linux-gnu/nios2-elf/lib/mhw-mulx/libc.a(lib_a-memcpy.o)
                0x000000000000a318                memcpy
 .text          0x000000000000a460        0x0 /opt/intelFPGA/18.1/nios2eds/bin/gnu/H-x86_64-pc-linux-gnu/bin/../lib/gcc/nios2-elf/5.3.0/../../../../../H-x86_64-pc-linux-gnu/nios2-elf/lib/mhw-mulx/libc.a(lib_a-memmove.o)
 .text.memmove  0x000000000000a460      0x15c /opt/intelFPGA/18.1/nios2eds/bin/gnu/H-x86_64-pc-linux-gnu/bin/../lib/gcc/nios2-elf/5.3.0/../../../../../H-x86_64-pc-linux-gnu/nios2-elf/lib/mhw-mulx/libc.a(lib_a-memmove.o)
                0x000000000000a460                memmove
 .text          0x000000000000a5bc        0x0 /opt/intelFPGA/18.1/nios2eds/bin/gnu/H-x86_64-pc-linux-gnu/bin/../lib/gcc/nios2-elf/5.3.0/../../../../../H-x86_64-pc-linux-gnu/nios2-elf/lib/mhw-mulx/libc.a(lib_a-memset.o)
 .text.memset   0x000000000000a5bc      0x128 /opt/intelFPGA/18.1/nios2eds/bin/gnu/H-x86_64-pc-linux-gnu/bin/../lib/gcc/nios2-elf/5.3.0/../../../../../H-x86_64-pc-linux-gnu/nios2-elf/lib/mhw-mulx/libc.a(lib_a-memset.o)
                0x000000000000a5bc                memset
 .text          0x000000000000a6e4        0x0 /opt/intelFPGA/18.1/nios2eds/bin/gnu/H-x86_64-pc-linux-gnu/bin/../lib/gcc/nios2-elf/5.3.0/../../../../../H-x86_64-pc-linux-gnu/nios2-elf/lib/mhw-mulx/libc.a(lib_a-mprec.o)
 .text._Balloc  0x000000000000a6e4       0xa8 /opt/intelFPGA/18.1/nios2eds/bin/gnu/H-x86_64-pc-linux-gnu/bin/../lib/gcc/nios2-elf/5.3.0/../../../../../H-x86_64-pc-linux-gnu/nios2-elf/lib/mhw-mulx/libc.a(lib_a-mprec.o)
                0x000000000000a6e4                _Balloc
 .text._Bfree   0x000000000000a78c       0x28 /opt/intelFPGA/18.1/nios2eds/bin/gnu/H-x86_64-pc-linux-gnu/bin/../lib/gcc/nios2-elf/5.3.0/../../../../../H-x86_64-pc-linux-gnu/nios2-elf/lib/mhw-mulx/libc.a(lib_a-mprec.o)
                0x000000000000a78c                _Bfree
 .text.__multadd
                0x000000000000a7b4      0x120 /opt/intelFPGA/18.1/nios2eds/bin/gnu/H-x86_64-pc-linux-gnu/bin/../lib/gcc/nios2-elf/5.3.0/../../../../../H-x86_64-pc-linux-gnu/nios2-elf/lib/mhw-mulx/libc.a(lib_a-mprec.o)
                0x000000000000a7b4                __multadd
 .text.__s2b    0x000000000000a8d4      0x104 /opt/intelFPGA/18.1/nios2eds/bin/gnu/H-x86_64-pc-linux-gnu/bin/../lib/gcc/nios2-elf/5.3.0/../../../../../H-x86_64-pc-linux-gnu/nios2-elf/lib/mhw-mulx/libc.a(lib_a-mprec.o)
                0x000000000000a8d4                __s2b
 .text.__hi0bits
                0x000000000000a9d8       0x68 /opt/intelFPGA/18.1/nios2eds/bin/gnu/H-x86_64-pc-linux-gnu/bin/../lib/gcc/nios2-elf/5.3.0/../../../../../H-x86_64-pc-linux-gnu/nios2-elf/lib/mhw-mulx/libc.a(lib_a-mprec.o)
                0x000000000000a9d8                __hi0bits
 .text.__lo0bits
                0x000000000000aa40       0xb0 /opt/intelFPGA/18.1/nios2eds/bin/gnu/H-x86_64-pc-linux-gnu/bin/../lib/gcc/nios2-elf/5.3.0/../../../../../H-x86_64-pc-linux-gnu/nios2-elf/lib/mhw-mulx/libc.a(lib_a-mprec.o)
                0x000000000000aa40                __lo0bits
 .text.__i2b    0x000000000000aaf0       0x3c /opt/intelFPGA/18.1/nios2eds/bin/gnu/H-x86_64-pc-linux-gnu/bin/../lib/gcc/nios2-elf/5.3.0/../../../../../H-x86_64-pc-linux-gnu/nios2-elf/lib/mhw-mulx/libc.a(lib_a-mprec.o)
                0x000000000000aaf0                __i2b
 .text.__multiply
                0x000000000000ab2c      0x1f8 /opt/intelFPGA/18.1/nios2eds/bin/gnu/H-x86_64-pc-linux-gnu/bin/../lib/gcc/nios2-elf/5.3.0/../../../../../H-x86_64-pc-linux-gnu/nios2-elf/lib/mhw-mulx/libc.a(lib_a-mprec.o)
                0x000000000000ab2c                __multiply
 .text.__pow5mult
                0x000000000000ad24      0x140 /opt/intelFPGA/18.1/nios2eds/bin/gnu/H-x86_64-pc-linux-gnu/bin/../lib/gcc/nios2-elf/5.3.0/../../../../../H-x86_64-pc-linux-gnu/nios2-elf/lib/mhw-mulx/libc.a(lib_a-mprec.o)
                0x000000000000ad24                __pow5mult
 .text.__lshift
                0x000000000000ae64      0x148 /opt/intelFPGA/18.1/nios2eds/bin/gnu/H-x86_64-pc-linux-gnu/bin/../lib/gcc/nios2-elf/5.3.0/../../../../../H-x86_64-pc-linux-gnu/nios2-elf/lib/mhw-mulx/libc.a(lib_a-mprec.o)
                0x000000000000ae64                __lshift
 .text.__mcmp   0x000000000000afac       0x60 /opt/intelFPGA/18.1/nios2eds/bin/gnu/H-x86_64-pc-linux-gnu/bin/../lib/gcc/nios2-elf/5.3.0/../../../../../H-x86_64-pc-linux-gnu/nios2-elf/lib/mhw-mulx/libc.a(lib_a-mprec.o)
                0x000000000000afac                __mcmp
 .text.__mdiff  0x000000000000b00c      0x1fc /opt/intelFPGA/18.1/nios2eds/bin/gnu/H-x86_64-pc-linux-gnu/bin/../lib/gcc/nios2-elf/5.3.0/../../../../../H-x86_64-pc-linux-gnu/nios2-elf/lib/mhw-mulx/libc.a(lib_a-mprec.o)
                0x000000000000b00c                __mdiff
 .text.__ulp    0x000000000000b208       0x64 /opt/intelFPGA/18.1/nios2eds/bin/gnu/H-x86_64-pc-linux-gnu/bin/../lib/gcc/nios2-elf/5.3.0/../../../../../H-x86_64-pc-linux-gnu/nios2-elf/lib/mhw-mulx/libc.a(lib_a-mprec.o)
                0x000000000000b208                __ulp
 .text.__b2d    0x000000000000b26c      0x10c /opt/intelFPGA/18.1/nios2eds/bin/gnu/H-x86_64-pc-linux-gnu/bin/../lib/gcc/nios2-elf/5.3.0/../../../../../H-x86_64-pc-linux-gnu/nios2-elf/lib/mhw-mulx/libc.a(lib_a-mprec.o)
                0x000000000000b26c                __b2d
 .text.__d2b    0x000000000000b378      0x14c /opt/intelFPGA/18.1/nios2eds/bin/gnu/H-x86_64-pc-linux-gnu/bin/../lib/gcc/nios2-elf/5.3.0/../../../../../H-x86_64-pc-linux-gnu/nios2-elf/lib/mhw-mulx/libc.a(lib_a-mprec.o)
                0x000000000000b378                __d2b
 .text.__ratio  0x000000000000b4c4       0xa4 /opt/intelFPGA/18.1/nios2eds/bin/gnu/H-x86_64-pc-linux-gnu/bin/../lib/gcc/nios2-elf/5.3.0/../../../../../H-x86_64-pc-linux-gnu/nios2-elf/lib/mhw-mulx/libc.a(lib_a-mprec.o)
                0x000000000000b4c4                __ratio
 .text._mprec_log10
                0x000000000000b568       0x74 /opt/intelFPGA/18.1/nios2eds/bin/gnu/H-x86_64-pc-linux-gnu/bin/../lib/gcc/nios2-elf/5.3.0/../../../../../H-x86_64-pc-linux-gnu/nios2-elf/lib/mhw-mulx/libc.a(lib_a-mprec.o)
                0x000000000000b568                _mprec_log10
 .text.__copybits
                0x000000000000b5dc       0x78 /opt/intelFPGA/18.1/nios2eds/bin/gnu/H-x86_64-pc-linux-gnu/bin/../lib/gcc/nios2-elf/5.3.0/../../../../../H-x86_64-pc-linux-gnu/nios2-elf/lib/mhw-mulx/libc.a(lib_a-mprec.o)
                0x000000000000b5dc                __copybits
 .text.__any_on
                0x000000000000b654       0x8c /opt/intelFPGA/18.1/nios2eds/bin/gnu/H-x86_64-pc-linux-gnu/bin/../lib/gcc/nios2-elf/5.3.0/../../../../../H-x86_64-pc-linux-gnu/nios2-elf/lib/mhw-mulx/libc.a(lib_a-mprec.o)
                0x000000000000b654                __any_on
 .text          0x000000000000b6e0        0x0 /opt/intelFPGA/18.1/nios2eds/bin/gnu/H-x86_64-pc-linux-gnu/bin/../lib/gcc/nios2-elf/5.3.0/../../../../../H-x86_64-pc-linux-gnu/nios2-elf/lib/mhw-mulx/libc.a(lib_a-reallocr.o)
 .text._realloc_r
                0x000000000000b6e0      0x564 /opt/intelFPGA/18.1/nios2eds/bin/gnu/H-x86_64-pc-linux-gnu/bin/../lib/gcc/nios2-elf/5.3.0/../../../../../H-x86_64-pc-linux-gnu/nios2-elf/lib/mhw-mulx/libc.a(lib_a-reallocr.o)
                0x000000000000b6e0                _realloc_r
 .text          0x000000000000bc44        0x0 /opt/intelFPGA/18.1/nios2eds/bin/gnu/H-x86_64-pc-linux-gnu/bin/../lib/gcc/nios2-elf/5.3.0/../../../../../H-x86_64-pc-linux-gnu/nios2-elf/lib/mhw-mulx/libc.a(lib_a-s_fpclassify.o)
 .text.__fpclassifyd
                0x000000000000bc44       0x74 /opt/intelFPGA/18.1/nios2eds/bin/gnu/H-x86_64-pc-linux-gnu/bin/../lib/gcc/nios2-elf/5.3.0/../../../../../H-x86_64-pc-linux-gnu/nios2-elf/lib/mhw-mulx/libc.a(lib_a-s_fpclassify.o)
                0x000000000000bc44                __fpclassifyd
 .text          0x000000000000bcb8        0x0 /opt/intelFPGA/18.1/nios2eds/bin/gnu/H-x86_64-pc-linux-gnu/bin/../lib/gcc/nios2-elf/5.3.0/../../../../../H-x86_64-pc-linux-gnu/nios2-elf/lib/mhw-mulx/libc.a(lib_a-stdio.o)
 .text.__sread  0x000000000000bcb8       0x54 /opt/intelFPGA/18.1/nios2eds/bin/gnu/H-x86_64-pc-linux-gnu/bin/../lib/gcc/nios2-elf/5.3.0/../../../../../H-x86_64-pc-linux-gnu/nios2-elf/lib/mhw-mulx/libc.a(lib_a-stdio.o)
                0x000000000000bcb8                __sread
 .text.__seofread
                0x000000000000bd0c        0x8 /opt/intelFPGA/18.1/nios2eds/bin/gnu/H-x86_64-pc-linux-gnu/bin/../lib/gcc/nios2-elf/5.3.0/../../../../../H-x86_64-pc-linux-gnu/nios2-elf/lib/mhw-mulx/libc.a(lib_a-stdio.o)
                0x000000000000bd0c                __seofread
 .text.__swrite
                0x000000000000bd14       0x7c /opt/intelFPGA/18.1/nios2eds/bin/gnu/H-x86_64-pc-linux-gnu/bin/../lib/gcc/nios2-elf/5.3.0/../../../../../H-x86_64-pc-linux-gnu/nios2-elf/lib/mhw-mulx/libc.a(lib_a-stdio.o)
                0x000000000000bd14                __swrite
 .text.__sseek  0x000000000000bd90       0x5c /opt/intelFPGA/18.1/nios2eds/bin/gnu/H-x86_64-pc-linux-gnu/bin/../lib/gcc/nios2-elf/5.3.0/../../../../../H-x86_64-pc-linux-gnu/nios2-elf/lib/mhw-mulx/libc.a(lib_a-stdio.o)
                0x000000000000bd90                __sseek
 .text.__sclose
                0x000000000000bdec        0x8 /opt/intelFPGA/18.1/nios2eds/bin/gnu/H-x86_64-pc-linux-gnu/bin/../lib/gcc/nios2-elf/5.3.0/../../../../../H-x86_64-pc-linux-gnu/nios2-elf/lib/mhw-mulx/libc.a(lib_a-stdio.o)
                0x000000000000bdec                __sclose
 .text          0x000000000000bdf4        0x0 /opt/intelFPGA/18.1/nios2eds/bin/gnu/H-x86_64-pc-linux-gnu/bin/../lib/gcc/nios2-elf/5.3.0/../../../../../H-x86_64-pc-linux-gnu/nios2-elf/lib/mhw-mulx/libc.a(lib_a-strcmp.o)
 .text.strcmp   0x000000000000bdf4       0xdc /opt/intelFPGA/18.1/nios2eds/bin/gnu/H-x86_64-pc-linux-gnu/bin/../lib/gcc/nios2-elf/5.3.0/../../../../../H-x86_64-pc-linux-gnu/nios2-elf/lib/mhw-mulx/libc.a(lib_a-strcmp.o)
                0x000000000000bdf4                strcmp
 .text          0x000000000000bed0        0x0 /opt/intelFPGA/18.1/nios2eds/bin/gnu/H-x86_64-pc-linux-gnu/bin/../lib/gcc/nios2-elf/5.3.0/../../../../../H-x86_64-pc-linux-gnu/nios2-elf/lib/mhw-mulx/libc.a(lib_a-svfiprintf.o)
 .text.__ssprint_r
                0x000000000000bed0      0x1d0 /opt/intelFPGA/18.1/nios2eds/bin/gnu/H-x86_64-pc-linux-gnu/bin/../lib/gcc/nios2-elf/5.3.0/../../../../../H-x86_64-pc-linux-gnu/nios2-elf/lib/mhw-mulx/libc.a(lib_a-svfiprintf.o)
                0x000000000000bed0                __ssprint_r
 .text.___svfiprintf_internal_r
                0x000000000000c0a0     0x123c /opt/intelFPGA/18.1/nios2eds/bin/gnu/H-x86_64-pc-linux-gnu/bin/../lib/gcc/nios2-elf/5.3.0/../../../../../H-x86_64-pc-linux-gnu/nios2-elf/lib/mhw-mulx/libc.a(lib_a-svfiprintf.o)
                0x000000000000c0a0                ___svfiprintf_internal_r
 .text          0x000000000000d2dc        0x0 /opt/intelFPGA/18.1/nios2eds/bin/gnu/H-x86_64-pc-linux-gnu/bin/../lib/gcc/nios2-elf/5.3.0/../../../../../H-x86_64-pc-linux-gnu/nios2-elf/lib/mhw-mulx/libc.a(lib_a-vfiprintf.o)
 .text.__sprint_r.part.0
                0x000000000000d2dc       0xfc /opt/intelFPGA/18.1/nios2eds/bin/gnu/H-x86_64-pc-linux-gnu/bin/../lib/gcc/nios2-elf/5.3.0/../../../../../H-x86_64-pc-linux-gnu/nios2-elf/lib/mhw-mulx/libc.a(lib_a-vfiprintf.o)
 .text.__sprint_r
                0x000000000000d3d8       0x18 /opt/intelFPGA/18.1/nios2eds/bin/gnu/H-x86_64-pc-linux-gnu/bin/../lib/gcc/nios2-elf/5.3.0/../../../../../H-x86_64-pc-linux-gnu/nios2-elf/lib/mhw-mulx/libc.a(lib_a-vfiprintf.o)
                0x000000000000d3d8                __sprint_r
 .text.___vfiprintf_internal_r
                0x000000000000d3f0     0x145c /opt/intelFPGA/18.1/nios2eds/bin/gnu/H-x86_64-pc-linux-gnu/bin/../lib/gcc/nios2-elf/5.3.0/../../../../../H-x86_64-pc-linux-gnu/nios2-elf/lib/mhw-mulx/libc.a(lib_a-vfiprintf.o)
                0x000000000000d3f0                ___vfiprintf_internal_r
 .text.__vfiprintf_internal
                0x000000000000e84c       0x1c /opt/intelFPGA/18.1/nios2eds/bin/gnu/H-x86_64-pc-linux-gnu/bin/../lib/gcc/nios2-elf/5.3.0/../../../../../H-x86_64-pc-linux-gnu/nios2-elf/lib/mhw-mulx/libc.a(lib_a-vfiprintf.o)
                0x000000000000e84c                __vfiprintf_internal
 .text.__sbprintf
                0x000000000000e868       0xbc /opt/intelFPGA/18.1/nios2eds/bin/gnu/H-x86_64-pc-linux-gnu/bin/../lib/gcc/nios2-elf/5.3.0/../../../../../H-x86_64-pc-linux-gnu/nios2-elf/lib/mhw-mulx/libc.a(lib_a-vfiprintf.o)
 .text          0x000000000000e924        0x0 /opt/intelFPGA/18.1/nios2eds/bin/gnu/H-x86_64-pc-linux-gnu/bin/../lib/gcc/nios2-elf/5.3.0/../../../../../H-x86_64-pc-linux-gnu/nios2-elf/lib/mhw-mulx/libc.a(lib_a-writer.o)
 .text._write_r
                0x000000000000e924       0x60 /opt/intelFPGA/18.1/nios2eds/bin/gnu/H-x86_64-pc-linux-gnu/bin/../lib/gcc/nios2-elf/5.3.0/../../../../../H-x86_64-pc-linux-gnu/nios2-elf/lib/mhw-mulx/libc.a(lib_a-writer.o)
                0x000000000000e924                _write_r
 .text          0x000000000000e984        0x0 /opt/intelFPGA/18.1/nios2eds/bin/gnu/H-x86_64-pc-linux-gnu/bin/../lib/gcc/nios2-elf/5.3.0/../../../../../H-x86_64-pc-linux-gnu/nios2-elf/lib/mhw-mulx/libc.a(closer.o)
 .text._close_r
                0x000000000000e984       0x54 /opt/intelFPGA/18.1/nios2eds/bin/gnu/H-x86_64-pc-linux-gnu/bin/../lib/gcc/nios2-elf/5.3.0/../../../../../H-x86_64-pc-linux-gnu/nios2-elf/lib/mhw-mulx/libc.a(closer.o)
                0x000000000000e984                _close_r
 .text          0x000000000000e9d8        0x0 /opt/intelFPGA/18.1/nios2eds/bin/gnu/H-x86_64-pc-linux-gnu/bin/../lib/gcc/nios2-elf/5.3.0/../../../../../H-x86_64-pc-linux-gnu/nios2-elf/lib/mhw-mulx/libc.a(lib_a-callocr.o)
 .text._calloc_r
                0x000000000000e9d8       0xc4 /opt/intelFPGA/18.1/nios2eds/bin/gnu/H-x86_64-pc-linux-gnu/bin/../lib/gcc/nios2-elf/5.3.0/../../../../../H-x86_64-pc-linux-gnu/nios2-elf/lib/mhw-mulx/libc.a(lib_a-callocr.o)
                0x000000000000e9d8                _calloc_r
 .text          0x000000000000ea9c        0x0 /opt/intelFPGA/18.1/nios2eds/bin/gnu/H-x86_64-pc-linux-gnu/bin/../lib/gcc/nios2-elf/5.3.0/../../../../../H-x86_64-pc-linux-gnu/nios2-elf/lib/mhw-mulx/libc.a(lib_a-fclose.o)
 .text._fclose_r
                0x000000000000ea9c       0xf0 /opt/intelFPGA/18.1/nios2eds/bin/gnu/H-x86_64-pc-linux-gnu/bin/../lib/gcc/nios2-elf/5.3.0/../../../../../H-x86_64-pc-linux-gnu/nios2-elf/lib/mhw-mulx/libc.a(lib_a-fclose.o)
                0x000000000000ea9c                _fclose_r
 .text.fclose   0x000000000000eb8c       0x14 /opt/intelFPGA/18.1/nios2eds/bin/gnu/H-x86_64-pc-linux-gnu/bin/../lib/gcc/nios2-elf/5.3.0/../../../../../H-x86_64-pc-linux-gnu/nios2-elf/lib/mhw-mulx/libc.a(lib_a-fclose.o)
                0x000000000000eb8c                fclose
 .text          0x000000000000eba0        0x0 /opt/intelFPGA/18.1/nios2eds/bin/gnu/H-x86_64-pc-linux-gnu/bin/../lib/gcc/nios2-elf/5.3.0/../../../../../H-x86_64-pc-linux-gnu/nios2-elf/lib/mhw-mulx/libc.a(lib_a-fputwc.o)
 .text.__fputwc
                0x000000000000eba0      0x164 /opt/intelFPGA/18.1/nios2eds/bin/gnu/H-x86_64-pc-linux-gnu/bin/../lib/gcc/nios2-elf/5.3.0/../../../../../H-x86_64-pc-linux-gnu/nios2-elf/lib/mhw-mulx/libc.a(lib_a-fputwc.o)
                0x000000000000eba0                __fputwc
 .text._fputwc_r
                0x000000000000ed04       0x24 /opt/intelFPGA/18.1/nios2eds/bin/gnu/H-x86_64-pc-linux-gnu/bin/../lib/gcc/nios2-elf/5.3.0/../../../../../H-x86_64-pc-linux-gnu/nios2-elf/lib/mhw-mulx/libc.a(lib_a-fputwc.o)
                0x000000000000ed04                _fputwc_r
 .text.fputwc   0x000000000000ed28       0x80 /opt/intelFPGA/18.1/nios2eds/bin/gnu/H-x86_64-pc-linux-gnu/bin/../lib/gcc/nios2-elf/5.3.0/../../../../../H-x86_64-pc-linux-gnu/nios2-elf/lib/mhw-mulx/libc.a(lib_a-fputwc.o)
                0x000000000000ed28                fputwc
 .text          0x000000000000eda8        0x0 /opt/intelFPGA/18.1/nios2eds/bin/gnu/H-x86_64-pc-linux-gnu/bin/../lib/gcc/nios2-elf/5.3.0/../../../../../H-x86_64-pc-linux-gnu/nios2-elf/lib/mhw-mulx/libc.a(lib_a-fstatr.o)
 .text._fstat_r
                0x000000000000eda8       0x5c /opt/intelFPGA/18.1/nios2eds/bin/gnu/H-x86_64-pc-linux-gnu/bin/../lib/gcc/nios2-elf/5.3.0/../../../../../H-x86_64-pc-linux-gnu/nios2-elf/lib/mhw-mulx/libc.a(lib_a-fstatr.o)
                0x000000000000eda8                _fstat_r
 .text          0x000000000000ee04        0x0 /opt/intelFPGA/18.1/nios2eds/bin/gnu/H-x86_64-pc-linux-gnu/bin/../lib/gcc/nios2-elf/5.3.0/../../../../../H-x86_64-pc-linux-gnu/nios2-elf/lib/mhw-mulx/libc.a(lib_a-isattyr.o)
 .text._isatty_r
                0x000000000000ee04       0x54 /opt/intelFPGA/18.1/nios2eds/bin/gnu/H-x86_64-pc-linux-gnu/bin/../lib/gcc/nios2-elf/5.3.0/../../../../../H-x86_64-pc-linux-gnu/nios2-elf/lib/mhw-mulx/libc.a(lib_a-isattyr.o)
                0x000000000000ee04                _isatty_r
 .text          0x000000000000ee58        0x0 /opt/intelFPGA/18.1/nios2eds/bin/gnu/H-x86_64-pc-linux-gnu/bin/../lib/gcc/nios2-elf/5.3.0/../../../../../H-x86_64-pc-linux-gnu/nios2-elf/lib/mhw-mulx/libc.a(lib_a-lseekr.o)
 .text._lseek_r
                0x000000000000ee58       0x60 /opt/intelFPGA/18.1/nios2eds/bin/gnu/H-x86_64-pc-linux-gnu/bin/../lib/gcc/nios2-elf/5.3.0/../../../../../H-x86_64-pc-linux-gnu/nios2-elf/lib/mhw-mulx/libc.a(lib_a-lseekr.o)
                0x000000000000ee58                _lseek_r
 .text          0x000000000000eeb8        0x0 /opt/intelFPGA/18.1/nios2eds/bin/gnu/H-x86_64-pc-linux-gnu/bin/../lib/gcc/nios2-elf/5.3.0/../../../../../H-x86_64-pc-linux-gnu/nios2-elf/lib/mhw-mulx/libc.a(lib_a-readr.o)
 .text._read_r  0x000000000000eeb8       0x60 /opt/intelFPGA/18.1/nios2eds/bin/gnu/H-x86_64-pc-linux-gnu/bin/../lib/gcc/nios2-elf/5.3.0/../../../../../H-x86_64-pc-linux-gnu/nios2-elf/lib/mhw-mulx/libc.a(lib_a-readr.o)
                0x000000000000eeb8                _read_r
 .text          0x000000000000ef18        0x0 /opt/intelFPGA/18.1/nios2eds/bin/gnu/H-x86_64-pc-linux-gnu/bin/../lib/gcc/nios2-elf/5.3.0/../../../../../H-x86_64-pc-linux-gnu/nios2-elf/lib/mhw-mulx/libc.a(lib_a-wbuf.o)
 .text.__swbuf_r
                0x000000000000ef18      0x140 /opt/intelFPGA/18.1/nios2eds/bin/gnu/H-x86_64-pc-linux-gnu/bin/../lib/gcc/nios2-elf/5.3.0/../../../../../H-x86_64-pc-linux-gnu/nios2-elf/lib/mhw-mulx/libc.a(lib_a-wbuf.o)
                0x000000000000ef18                __swbuf_r
 .text.__swbuf  0x000000000000f058       0x18 /opt/intelFPGA/18.1/nios2eds/bin/gnu/H-x86_64-pc-linux-gnu/bin/../lib/gcc/nios2-elf/5.3.0/../../../../../H-x86_64-pc-linux-gnu/nios2-elf/lib/mhw-mulx/libc.a(lib_a-wbuf.o)
                0x000000000000f058                __swbuf
 .text          0x000000000000f070        0x0 /opt/intelFPGA/18.1/nios2eds/bin/gnu/H-x86_64-pc-linux-gnu/bin/../lib/gcc/nios2-elf/5.3.0/../../../../../H-x86_64-pc-linux-gnu/nios2-elf/lib/mhw-mulx/libc.a(lib_a-wcrtomb.o)
 .text._wcrtomb_r
                0x000000000000f070       0x9c /opt/intelFPGA/18.1/nios2eds/bin/gnu/H-x86_64-pc-linux-gnu/bin/../lib/gcc/nios2-elf/5.3.0/../../../../../H-x86_64-pc-linux-gnu/nios2-elf/lib/mhw-mulx/libc.a(lib_a-wcrtomb.o)
                0x000000000000f070                _wcrtomb_r
 .text.wcrtomb  0x000000000000f10c       0xc0 /opt/intelFPGA/18.1/nios2eds/bin/gnu/H-x86_64-pc-linux-gnu/bin/../lib/gcc/nios2-elf/5.3.0/../../../../../H-x86_64-pc-linux-gnu/nios2-elf/lib/mhw-mulx/libc.a(lib_a-wcrtomb.o)
                0x000000000000f10c                wcrtomb
 .text          0x000000000000f1cc        0x0 /opt/intelFPGA/18.1/nios2eds/bin/gnu/H-x86_64-pc-linux-gnu/bin/../lib/gcc/nios2-elf/5.3.0/../../../../../H-x86_64-pc-linux-gnu/nios2-elf/lib/mhw-mulx/libc.a(lib_a-wctomb_r.o)
 .text.__ascii_wctomb
                0x000000000000f1cc       0x30 /opt/intelFPGA/18.1/nios2eds/bin/gnu/H-x86_64-pc-linux-gnu/bin/../lib/gcc/nios2-elf/5.3.0/../../../../../H-x86_64-pc-linux-gnu/nios2-elf/lib/mhw-mulx/libc.a(lib_a-wctomb_r.o)
                0x000000000000f1cc                __ascii_wctomb
 .text._wctomb_r
                0x000000000000f1fc       0x5c /opt/intelFPGA/18.1/nios2eds/bin/gnu/H-x86_64-pc-linux-gnu/bin/../lib/gcc/nios2-elf/5.3.0/../../../../../H-x86_64-pc-linux-gnu/nios2-elf/lib/mhw-mulx/libc.a(lib_a-wctomb_r.o)
                0x000000000000f1fc                _wctomb_r
 .text          0x000000000000f258      0x578 /opt/intelFPGA/18.1/nios2eds/bin/gnu/H-x86_64-pc-linux-gnu/bin/../lib/gcc/nios2-elf/5.3.0/mhw-mulx/libgcc.a(_udivdi3.o)
                0x000000000000f258                __udivdi3
 .text          0x000000000000f7d0      0x538 /opt/intelFPGA/18.1/nios2eds/bin/gnu/H-x86_64-pc-linux-gnu/bin/../lib/gcc/nios2-elf/5.3.0/mhw-mulx/libgcc.a(_umoddi3.o)
                0x000000000000f7d0                __umoddi3
 .text          0x000000000000fd08      0x1b4 /opt/intelFPGA/18.1/nios2eds/bin/gnu/H-x86_64-pc-linux-gnu/bin/../lib/gcc/nios2-elf/5.3.0/mhw-mulx/libgcc.a(lib2-divmod.o)
                0x000000000000fd08                __divsi3
                0x000000000000fd8c                __modsi3
                0x000000000000fe00                __udivsi3
                0x000000000000fe64                __umodsi3
 .text          0x000000000000febc      0x8ac /opt/intelFPGA/18.1/nios2eds/bin/gnu/H-x86_64-pc-linux-gnu/bin/../lib/gcc/nios2-elf/5.3.0/mhw-mulx/libgcc.a(adddf3.o)
                0x000000000000febc                __adddf3
 .text          0x0000000000010768      0x8e8 /opt/intelFPGA/18.1/nios2eds/bin/gnu/H-x86_64-pc-linux-gnu/bin/../lib/gcc/nios2-elf/5.3.0/mhw-mulx/libgcc.a(divdf3.o)
                0x0000000000010768                __divdf3
 .text          0x0000000000011050       0x88 /opt/intelFPGA/18.1/nios2eds/bin/gnu/H-x86_64-pc-linux-gnu/bin/../lib/gcc/nios2-elf/5.3.0/mhw-mulx/libgcc.a(eqdf2.o)
                0x0000000000011050                __eqdf2
                0x0000000000011050                __nedf2
 .text          0x00000000000110d8       0xdc /opt/intelFPGA/18.1/nios2eds/bin/gnu/H-x86_64-pc-linux-gnu/bin/../lib/gcc/nios2-elf/5.3.0/mhw-mulx/libgcc.a(gedf2.o)
                0x00000000000110d8                __gtdf2
                0x00000000000110d8                __gedf2
 .text          0x00000000000111b4       0xf4 /opt/intelFPGA/18.1/nios2eds/bin/gnu/H-x86_64-pc-linux-gnu/bin/../lib/gcc/nios2-elf/5.3.0/mhw-mulx/libgcc.a(ledf2.o)
                0x00000000000111b4                __ltdf2
                0x00000000000111b4                __ledf2
 .text          0x00000000000112a8      0x718 /opt/intelFPGA/18.1/nios2eds/bin/gnu/H-x86_64-pc-linux-gnu/bin/../lib/gcc/nios2-elf/5.3.0/mhw-mulx/libgcc.a(muldf3.o)
                0x00000000000112a8                __muldf3
 .text          0x00000000000119c0      0x8fc /opt/intelFPGA/18.1/nios2eds/bin/gnu/H-x86_64-pc-linux-gnu/bin/../lib/gcc/nios2-elf/5.3.0/mhw-mulx/libgcc.a(subdf3.o)
                0x00000000000119c0                __subdf3
 .text          0x00000000000122bc       0x80 /opt/intelFPGA/18.1/nios2eds/bin/gnu/H-x86_64-pc-linux-gnu/bin/../lib/gcc/nios2-elf/5.3.0/mhw-mulx/libgcc.a(fixdfsi.o)
                0x00000000000122bc                __fixdfsi
 .text          0x000000000001233c       0xdc /opt/intelFPGA/18.1/nios2eds/bin/gnu/H-x86_64-pc-linux-gnu/bin/../lib/gcc/nios2-elf/5.3.0/mhw-mulx/libgcc.a(floatsidf.o)
                0x000000000001233c                __floatsidf
 .text          0x0000000000012418       0xa8 /opt/intelFPGA/18.1/nios2eds/bin/gnu/H-x86_64-pc-linux-gnu/bin/../lib/gcc/nios2-elf/5.3.0/mhw-mulx/libgcc.a(floatunsidf.o)
                0x0000000000012418                __floatunsidf
 .text          0x00000000000124c0        0x0 /opt/intelFPGA/18.1/nios2eds/bin/gnu/H-x86_64-pc-linux-gnu/bin/../lib/gcc/nios2-elf/5.3.0/mhw-mulx/libgcc.a(_clz.o)
 .text          0x00000000000124c0       0x64 /opt/intelFPGA/18.1/nios2eds/bin/gnu/H-x86_64-pc-linux-gnu/bin/../lib/gcc/nios2-elf/5.3.0/mhw-mulx/libgcc.a(_clzsi2.o)
                0x00000000000124c0                __clzsi2
 .text          0x0000000000012524      0x10c ../ucos2nios2_bsp//libucosii_bsp.a(alt_close.o)
                0x0000000000012560                close
 .text          0x0000000000012630       0x2c ../ucos2nios2_bsp//libucosii_bsp.a(alt_dev.o)
 .text          0x000000000001265c        0x0 ../ucos2nios2_bsp//libucosii_bsp.a(alt_errno.o)
 .text          0x000000000001265c       0xec ../ucos2nios2_bsp//libucosii_bsp.a(alt_fstat.o)
                0x0000000000012698                fstat
 .text          0x0000000000012748       0xe0 ../ucos2nios2_bsp//libucosii_bsp.a(alt_isatty.o)
                0x0000000000012784                isatty
 .text          0x0000000000012828       0xec ../ucos2nios2_bsp//libucosii_bsp.a(alt_load.o)
                0x0000000000012890                alt_load
 .text          0x0000000000012914      0x110 ../ucos2nios2_bsp//libucosii_bsp.a(alt_lseek.o)
                0x0000000000012950                lseek
 .text          0x0000000000012a24       0xbc ../ucos2nios2_bsp//libucosii_bsp.a(alt_main.o)
                0x0000000000012a24                alt_main
 .text          0x0000000000012ae0      0x138 ../ucos2nios2_bsp//libucosii_bsp.a(alt_read.o)
                0x0000000000012b1c                read
 .text          0x0000000000012c18       0x64 ../ucos2nios2_bsp//libucosii_bsp.a(alt_release_fd.o)
                0x0000000000012c18                alt_release_fd
 .text          0x0000000000012c7c       0xb0 ../ucos2nios2_bsp//libucosii_bsp.a(alt_sbrk.o)
                0x0000000000012c7c                sbrk
 .text          0x0000000000012d2c      0x134 ../ucos2nios2_bsp//libucosii_bsp.a(alt_write.o)
                0x0000000000012d68                write
 .text          0x0000000000012e60      0x124 ../ucos2nios2_bsp//libucosii_bsp.a(alt_env_lock.o)
                0x0000000000012e60                __env_lock
                0x0000000000012f24                __env_unlock
 .text          0x0000000000012f84      0x1ec ../ucos2nios2_bsp//libucosii_bsp.a(alt_malloc_lock.o)
                0x0000000000012f84                __malloc_lock
                0x00000000000130a4                __malloc_unlock
 .text          0x0000000000013170     0x2024 ../ucos2nios2_bsp//libucosii_bsp.a(os_core.o)
                0x0000000000013170                OSEventNameGet
                0x0000000000013290                OSEventNameSet
                0x00000000000133d0                OSEventPendMulti
                0x00000000000139e0                OSInit
                0x0000000000013a38                OSIntEnter
                0x0000000000013a84                OSIntExit
                0x0000000000013b7c                OSSchedLock
                0x0000000000013c08                OSSchedUnlock
                0x0000000000013ce4                OSStart
                0x0000000000013d54                OSStatInit
                0x0000000000013e04                OSTimeTick
                0x0000000000014024                OSVersion
                0x0000000000014044                OS_Dummy
                0x0000000000014064                OS_EventTaskRdy
                0x00000000000141fc                OS_EventTaskWait
                0x000000000001430c                OS_EventTaskWaitMulti
                0x000000000001445c                OS_EventTaskRemove
                0x0000000000014514                OS_EventTaskRemoveMulti
                0x0000000000014614                OS_EventWaitListInit
                0x00000000000149f4                OS_MemClr
                0x0000000000014a48                OS_MemCopy
                0x0000000000014ab0                OS_Sched
                0x0000000000014bf4                OS_StrCopy
                0x0000000000014c68                OS_StrLen
                0x0000000000014cbc                OS_TaskIdle
                0x0000000000014d18                OS_TaskStat
                0x0000000000014df4                OS_TaskStatStkChk
                0x0000000000014ec0                OS_TCBInit
 .text          0x0000000000015194      0x190 ../ucos2nios2_bsp//libucosii_bsp.a(os_dbg.o)
                0x0000000000015194                OSDebugInit
 .text          0x0000000000015324     0x1714 ../ucos2nios2_bsp//libucosii_bsp.a(os_flag.o)
                0x0000000000015324                OSFlagAccept
                0x000000000001562c                OSFlagCreate
                0x0000000000015734                OSFlagDel
                0x000000000001597c                OSFlagNameGet
                0x0000000000015aa4                OSFlagNameSet
                0x0000000000015bf0                OSFlagPend
                0x00000000000161a8                OSFlagPendGetFlagsRdy
                0x0000000000016208                OSFlagPost
                0x000000000001659c                OSFlagQuery
                0x00000000000167c0                OS_FlagInit
                0x0000000000016994                OS_FlagUnlink
 .text          0x0000000000016a38      0xac8 ../ucos2nios2_bsp//libucosii_bsp.a(os_mbox.o)
                0x0000000000016a38                OSMboxAccept
                0x0000000000016ad0                OSMboxCreate
                0x0000000000016ba4                OSMboxDel
                0x0000000000016de4                OSMboxPend
                0x0000000000017018                OSMboxPendAbort
                0x0000000000017184                OSMboxPost
                0x0000000000017294                OSMboxPostOpt
                0x00000000000173f0                OSMboxQuery
 .text          0x0000000000017500      0x754 ../ucos2nios2_bsp//libucosii_bsp.a(os_mem.o)
                0x0000000000017500                OSMemCreate
                0x00000000000176d4                OSMemGet
                0x00000000000177c4                OSMemNameGet
                0x00000000000178b4                OSMemNameSet
                0x00000000000179c8                OSMemPut
                0x0000000000017aa0                OSMemQuery
                0x0000000000017b88                OS_MemInit
 .text          0x0000000000017c54     0x1104 ../ucos2nios2_bsp//libucosii_bsp.a(os_q.o)
                0x0000000000017c54                OSQAccept
                0x0000000000017d94                OSQCreate
                0x0000000000017f40                OSQDel
                0x00000000000181c0                OSQFlush
                0x0000000000018278                OSQPend
                0x0000000000018504                OSQPendAbort
                0x0000000000018670                OSQPost
                0x00000000000187d8                OSQPostFront
                0x0000000000018948                OSQPostOpt
                0x0000000000018b54                OSQQuery
                0x0000000000018cb0                OS_QInit
 .text          0x0000000000018d58      0xa60 ../ucos2nios2_bsp//libucosii_bsp.a(os_sem.o)
                0x0000000000018d58                OSSemAccept
                0x0000000000018e08                OSSemCreate
                0x0000000000018ee0                OSSemDel
                0x0000000000019120                OSSemPend
                0x000000000001932c                OSSemPendAbort
                0x0000000000019498                OSSemPost
                0x00000000000195a8                OSSemQuery
                0x00000000000196b8                OSSemSet
 .text          0x00000000000197b8     0x176c ../ucos2nios2_bsp//libucosii_bsp.a(os_task.o)
                0x00000000000197b8                OSTaskChangePrio
                0x0000000000019ca8                OSTaskCreate
                0x0000000000019e54                OSTaskCreateExt
                0x000000000001a038                OSTaskDel
                0x000000000001a37c                OSTaskDelReq
                0x000000000001a4cc                OSTaskNameGet
                0x000000000001a664                OSTaskNameSet
                0x000000000001a818                OSTaskResume
                0x000000000001a9ec                OSTaskStkChk
                0x000000000001abac                OSTaskSuspend
                0x000000000001ad90                OSTaskQuery
                0x000000000001aeb4                OS_TaskStkClr
 .text          0x000000000001af24      0x4f4 ../ucos2nios2_bsp//libucosii_bsp.a(os_time.o)
                0x000000000001af24                OSTimeDly
                0x000000000001b028                OSTimeDlyHMSM
                0x000000000001b188                OSTimeDlyResume
                0x000000000001b35c                OSTimeGet
                0x000000000001b3b8                OSTimeSet
 .text          0x000000000001b418      0x9d8 ../ucos2nios2_bsp//libucosii_bsp.a(alt_sys_init.o)
                0x000000000001b44c                alt_irq_init
                0x000000000001b484                alt_sys_init
 .text          0x000000000001bdf0     0x42c8 ../ucos2nios2_bsp//libucosii_bsp.a(Altera_UP_SD_Card_Avalon_Interface.o)
                0x000000000001bdf0                Write_Sector_Data
                0x000000000001bea4                Save_Modified_Sector
                0x000000000001bef0                Read_Sector_Data
                0x000000000001bfc8                get_cluster_flag
                0x000000000001c07c                mark_cluster
                0x000000000001c15c                Check_for_Master_Boot_Record
                0x000000000001c300                Read_File_Record_At_Offset
                0x000000000001c57c                Write_File_Record_At_Offset
                0x000000000001c808                Check_for_DOS_FAT
                0x000000000001ce88                Look_for_FAT16
                0x000000000001cf74                filename_to_upper_case
                0x000000000001d038                check_file_name_for_FAT16_compliance
                0x000000000001d2a4                get_dir_divider_location
                0x000000000001d35c                match_file_record_to_name_ext
                0x000000000001d5f8                get_home_directory_cluster_for_file
                0x000000000001db30                find_file_in_directory
                0x000000000001dfa4                find_first_empty_cluster
                0x000000000001e150                find_first_empty_record_in_a_subdirectory
                0x000000000001e39c                find_first_empty_record_in_root_directory
                0x000000000001e4c8                convert_filename_to_name_extension
                0x000000000001e654                create_file
                0x000000000001e91c                copy_file_record_name_to_string
                0x000000000001ea64                alt_up_sd_card_open_dev
                0x000000000001eb20                alt_up_sd_card_is_Present
                0x000000000001ebe4                alt_up_sd_card_is_FAT16
                0x000000000001ec50                alt_up_sd_card_find_first
                0x000000000001ed20                alt_up_sd_card_find_next
                0x000000000001f0d8                alt_up_sd_card_fopen
                0x000000000001f454                alt_up_sd_card_set_attributes
                0x000000000001f4dc                alt_up_sd_card_get_attributes
                0x000000000001f564                alt_up_sd_card_read
                0x000000000001f8dc                alt_up_sd_card_write
                0x000000000001fefc                alt_up_sd_card_fclose
 .text          0x00000000000200b8      0x164 ../ucos2nios2_bsp//libucosii_bsp.a(altera_avalon_jtag_uart_fd.o)
                0x00000000000200b8                altera_avalon_jtag_uart_read_fd
                0x0000000000020118                altera_avalon_jtag_uart_write_fd
                0x0000000000020178                altera_avalon_jtag_uart_close_fd
                0x00000000000201c8                altera_avalon_jtag_uart_ioctl_fd
 .text          0x000000000002021c      0x550 ../ucos2nios2_bsp//libucosii_bsp.a(altera_avalon_jtag_uart_init.o)
                0x000000000002021c                altera_avalon_jtag_uart_init
                0x0000000000020704                altera_avalon_jtag_uart_close
 .text          0x000000000002076c       0xf0 ../ucos2nios2_bsp//libucosii_bsp.a(altera_avalon_jtag_uart_ioctl.o)
                0x000000000002076c                altera_avalon_jtag_uart_ioctl
 .text          0x000000000002085c      0x2bc ../ucos2nios2_bsp//libucosii_bsp.a(altera_avalon_jtag_uart_read.o)
                0x000000000002085c                altera_avalon_jtag_uart_read
 .text          0x0000000000020b18      0x2c4 ../ucos2nios2_bsp//libucosii_bsp.a(altera_avalon_jtag_uart_write.o)
                0x0000000000020b18                altera_avalon_jtag_uart_write
 .text          0x0000000000020ddc       0xf0 ../ucos2nios2_bsp//libucosii_bsp.a(altera_avalon_timer_sc.o)
                0x0000000000020e58                alt_avalon_timer_sc_init
 .text          0x0000000000020ecc      0x7a8 ../ucos2nios2_bsp//libucosii_bsp.a(altera_up_avalon_audio.o)
                0x0000000000020ecc                alt_up_audio_open_dev
                0x0000000000020f08                alt_up_audio_enable_read_interrupt
                0x0000000000020f5c                alt_up_audio_disable_read_interrupt
                0x0000000000020fb4                alt_up_audio_enable_write_interrupt
                0x0000000000021008                alt_up_audio_disable_write_interrupt
                0x0000000000021060                alt_up_audio_read_interrupt_pending
                0x00000000000210a0                alt_up_audio_write_interrupt_pending
                0x00000000000210e0                alt_up_audio_reset_audio_core
                0x0000000000021174                alt_up_audio_read_fifo_avail
                0x00000000000211d4                alt_up_audio_record_r
                0x000000000002123c                alt_up_audio_record_l
                0x00000000000212a4                alt_up_audio_write_fifo_space
                0x0000000000021304                alt_up_audio_play_r
                0x000000000002136c                alt_up_audio_play_l
                0x00000000000213d4                alt_up_audio_read_fifo
                0x00000000000214b4                alt_up_audio_write_fifo
                0x00000000000215bc                alt_up_audio_read_fifo_head
                0x000000000002160c                alt_up_audio_write_fifo_head
 .text          0x0000000000021674      0x4f4 ../ucos2nios2_bsp//libucosii_bsp.a(altera_up_avalon_character_lcd.o)
                0x0000000000021674                get_DDRAM_addr
                0x00000000000216e8                alt_up_character_lcd_send_cmd
                0x0000000000021728                alt_up_character_lcd_init
                0x0000000000021760                alt_up_character_lcd_open_dev
                0x000000000002179c                alt_up_character_lcd_write
                0x0000000000021818                alt_up_character_lcd_string
                0x0000000000021890                alt_up_character_lcd_write_fd
                0x00000000000218e0                alt_up_character_lcd_set_cursor_pos
                0x0000000000021954                alt_up_character_lcd_shift_cursor
                0x00000000000219e0                alt_up_character_lcd_shift_display
                0x0000000000021a6c                alt_up_character_lcd_erase_pos
                0x0000000000021af8                alt_up_character_lcd_cursor_off
                0x0000000000021b30                alt_up_character_lcd_cursor_blink_on
 .text          0x0000000000021b68      0x38c ../ucos2nios2_bsp//libucosii_bsp.a(altera_up_avalon_irda.o)
                0x0000000000021b68                alt_up_irda_enable_read_interrupt
                0x0000000000021bc4                alt_up_irda_disable_read_interrupt
                0x0000000000021c24                alt_up_irda_get_used_space_in_read_FIFO
                0x0000000000021c64                alt_up_irda_get_available_space_in_write_FIFO
                0x0000000000021ca0                alt_up_irda_check_parity
                0x0000000000021ce4                alt_up_irda_write_data
                0x0000000000021d24                alt_up_irda_read_data
                0x0000000000021d98                alt_up_irda_read_fd
                0x0000000000021e28                alt_up_irda_write_fd
                0x0000000000021eb8                alt_up_irda_open_dev
 .text          0x0000000000021ef4      0x6b0 ../ucos2nios2_bsp//libucosii_bsp.a(altera_up_avalon_ps2.o)
                0x0000000000021ef4                read_RI_bit
                0x0000000000021f28                read_RE_bit
                0x0000000000021f58                read_CE_bit
                0x0000000000021f8c                read_num_bytes_available
                0x0000000000021fbc                read_data_valid
                0x0000000000021ff0                read_data_byte
                0x000000000002201c                alt_up_ps2_init
                0x00000000000220e4                alt_up_ps2_enable_read_interrupt
                0x0000000000022140                alt_up_ps2_disable_read_interrupt
                0x00000000000221a0                alt_up_ps2_write_data_byte
                0x0000000000022214                alt_up_ps2_wait_for_ack
                0x000000000002227c                alt_up_ps2_write_data_byte_with_ack
                0x00000000000222e0                alt_up_ps2_read_data_byte_timeout
                0x000000000002237c                alt_up_ps2_read_data_byte
                0x00000000000223ec                alt_up_ps2_clear_fifo
                0x0000000000022444                alt_up_ps2_read_fd
                0x00000000000224d0                alt_up_ps2_write_fd
                0x0000000000022568                alt_up_ps2_open_dev
 .text          0x00000000000225a4      0x390 ../ucos2nios2_bsp//libucosii_bsp.a(altera_up_avalon_rs232.o)
                0x00000000000225a4                alt_up_rs232_enable_read_interrupt
                0x0000000000022600                alt_up_rs232_disable_read_interrupt
                0x0000000000022660                alt_up_rs232_get_used_space_in_read_FIFO
                0x00000000000226a0                alt_up_rs232_get_available_space_in_write_FIFO
                0x00000000000226dc                alt_up_rs232_check_parity
                0x0000000000022720                alt_up_rs232_write_data
                0x0000000000022760                alt_up_rs232_read_data
                0x00000000000227d4                alt_up_rs232_read_fd
                0x0000000000022864                alt_up_rs232_write_fd
                0x00000000000228f8                alt_up_rs232_open_dev
 .text          0x0000000000022934      0x5dc ../ucos2nios2_bsp//libucosii_bsp.a(altera_up_ps2_keyboard.o)
                0x0000000000022934                get_multi_byte_make_code_index
                0x00000000000229a4                get_single_byte_make_code_index
                0x0000000000022a14                get_next_state
                0x0000000000022c60                decode_scancode
                0x0000000000022d1c                set_keyboard_rate
                0x0000000000022d80                translate_make_code
                0x0000000000022e98                reset_keyboard
 .text          0x0000000000022f10      0x12c ../ucos2nios2_bsp//libucosii_bsp.a(alt_alarm_start.o)
                0x0000000000022f10                alt_alarm_start
 .text          0x000000000002303c       0x20 ../ucos2nios2_bsp//libucosii_bsp.a(alt_dcache_flush_all.o)
                0x000000000002303c                alt_dcache_flush_all
 .text          0x000000000002305c       0xe0 ../ucos2nios2_bsp//libucosii_bsp.a(alt_dev_llist_insert.o)
                0x0000000000023098                alt_dev_llist_insert
 .text          0x000000000002313c       0x60 ../ucos2nios2_bsp//libucosii_bsp.a(alt_do_ctors.o)
                0x000000000002313c                _do_ctors
 .text          0x000000000002319c       0x60 ../ucos2nios2_bsp//libucosii_bsp.a(alt_do_dtors.o)
                0x000000000002319c                _do_dtors
 .text          0x00000000000231fc       0x90 ../ucos2nios2_bsp//libucosii_bsp.a(alt_find_dev.o)
                0x00000000000231fc                alt_find_dev
 .text          0x000000000002328c       0x34 ../ucos2nios2_bsp//libucosii_bsp.a(alt_icache_flush_all.o)
                0x000000000002328c                alt_icache_flush_all
 .text          0x00000000000232c0      0x140 ../ucos2nios2_bsp//libucosii_bsp.a(alt_io_redirect.o)
                0x0000000000023384                alt_io_redirect
 .text          0x0000000000023400      0x180 ../ucos2nios2_bsp//libucosii_bsp.a(alt_irq_register.o)
                0x0000000000023400                alt_irq_register
 .text          0x0000000000023580        0x0 ../ucos2nios2_bsp//libucosii_bsp.a(alt_irq_vars.o)
 .text          0x0000000000023580      0x254 ../ucos2nios2_bsp//libucosii_bsp.a(alt_open.o)
                0x0000000000023680                open
 .text          0x00000000000237d4      0x1a4 ../ucos2nios2_bsp//libucosii_bsp.a(alt_tick.o)
                0x00000000000237d4                alt_alarm_stop
                0x0000000000023870                alt_tick
 .text          0x0000000000023978       0x24 ../ucos2nios2_bsp//libucosii_bsp.a(altera_nios2_gen2_irq.o)
                0x0000000000023978                altera_nios2_gen2_irq_init
 .text          0x000000000002399c       0xd0 ../ucos2nios2_bsp//libucosii_bsp.a(os_cpu_a.o)
                0x000000000002399c                OSCtxSw
                0x000000000002399c                OSIntCtxSw
                0x0000000000023a28                OSStartHighRdy
                0x0000000000023a48                OSStartTsk
 .text          0x0000000000023a6c      0x288 ../ucos2nios2_bsp//libucosii_bsp.a(os_cpu_c.o)
                0x0000000000023a6c                OSTaskStkInit
                0x0000000000023bc8                OSTaskCreateHook
                0x0000000000023bec                OSTaskDelHook
                0x0000000000023c10                OSTaskSwHook
                0x0000000000023c30                OSTaskStatHook
                0x0000000000023c50                OSTimeTickHook
                0x0000000000023c70                OSInitHookBegin
                0x0000000000023c90                OSInitHookEnd
                0x0000000000023cb0                OSTaskIdleHook
                0x0000000000023cd0                OSTCBInitHook
 .text          0x0000000000023cf4      0x108 ../ucos2nios2_bsp//libucosii_bsp.a(alt_find_file.o)
                0x0000000000023cf4                alt_find_file
 .text          0x0000000000023dfc       0xdc ../ucos2nios2_bsp//libucosii_bsp.a(alt_get_fd.o)
                0x0000000000023dfc                alt_get_fd
 .text          0x0000000000023ed8       0x90 ../ucos2nios2_bsp//libucosii_bsp.a(alt_icache_flush.o)
                0x0000000000023ed8                alt_icache_flush
 .text          0x0000000000023f68        0x0 ../ucos2nios2_bsp//libucosii_bsp.a(alt_irq_entry.o)
 .text          0x0000000000023f68        0x0 ../ucos2nios2_bsp//libucosii_bsp.a(alt_irq_handler.o)
 .text          0x0000000000023f68        0x0 ../ucos2nios2_bsp//libucosii_bsp.a(alt_exception_entry.o)
 .text          0x0000000000023f68       0x9c ../ucos2nios2_bsp//libucosii_bsp.a(alt_instruction_exception_entry.o)
                0x0000000000023f68                alt_exception_cause_generated_bad_addr
 .text          0x0000000000024004        0x0 /opt/intelFPGA/18.1/nios2eds/bin/gnu/H-x86_64-pc-linux-gnu/bin/../lib/gcc/nios2-elf/5.3.0/../../../../../H-x86_64-pc-linux-gnu/nios2-elf/lib/mhw-mulx/libc.a(lib_a-atexit.o)
 .text.atexit   0x0000000000024004       0x14 /opt/intelFPGA/18.1/nios2eds/bin/gnu/H-x86_64-pc-linux-gnu/bin/../lib/gcc/nios2-elf/5.3.0/../../../../../H-x86_64-pc-linux-gnu/nios2-elf/lib/mhw-mulx/libc.a(lib_a-atexit.o)
                0x0000000000024004                atexit
 .text          0x0000000000024018        0x0 /opt/intelFPGA/18.1/nios2eds/bin/gnu/H-x86_64-pc-linux-gnu/bin/../lib/gcc/nios2-elf/5.3.0/../../../../../H-x86_64-pc-linux-gnu/nios2-elf/lib/mhw-mulx/libc.a(lib_a-exit.o)
 .text.exit     0x0000000000024018       0x38 /opt/intelFPGA/18.1/nios2eds/bin/gnu/H-x86_64-pc-linux-gnu/bin/../lib/gcc/nios2-elf/5.3.0/../../../../../H-x86_64-pc-linux-gnu/nios2-elf/lib/mhw-mulx/libc.a(lib_a-exit.o)
                0x0000000000024018                exit
 .text          0x0000000000024050        0x0 /opt/intelFPGA/18.1/nios2eds/bin/gnu/H-x86_64-pc-linux-gnu/bin/../lib/gcc/nios2-elf/5.3.0/../../../../../H-x86_64-pc-linux-gnu/nios2-elf/lib/mhw-mulx/libc.a(lib_a-memcmp.o)
 .text.memcmp   0x0000000000024050       0x7c /opt/intelFPGA/18.1/nios2eds/bin/gnu/H-x86_64-pc-linux-gnu/bin/../lib/gcc/nios2-elf/5.3.0/../../../../../H-x86_64-pc-linux-gnu/nios2-elf/lib/mhw-mulx/libc.a(lib_a-memcmp.o)
                0x0000000000024050                memcmp
 .text          0x00000000000240cc        0x0 /opt/intelFPGA/18.1/nios2eds/bin/gnu/H-x86_64-pc-linux-gnu/bin/../lib/gcc/nios2-elf/5.3.0/../../../../../H-x86_64-pc-linux-gnu/nios2-elf/lib/mhw-mulx/libc.a(lib_a-__atexit.o)
 .text.__register_exitproc
                0x00000000000240cc      0x118 /opt/intelFPGA/18.1/nios2eds/bin/gnu/H-x86_64-pc-linux-gnu/bin/../lib/gcc/nios2-elf/5.3.0/../../../../../H-x86_64-pc-linux-gnu/nios2-elf/lib/mhw-mulx/libc.a(lib_a-__atexit.o)
                0x00000000000240cc                __register_exitproc
 .text          0x00000000000241e4        0x0 /opt/intelFPGA/18.1/nios2eds/bin/gnu/H-x86_64-pc-linux-gnu/bin/../lib/gcc/nios2-elf/5.3.0/../../../../../H-x86_64-pc-linux-gnu/nios2-elf/lib/mhw-mulx/libc.a(lib_a-__call_atexit.o)
 .text.__call_exitprocs
                0x00000000000241e4      0x180 /opt/intelFPGA/18.1/nios2eds/bin/gnu/H-x86_64-pc-linux-gnu/bin/../lib/gcc/nios2-elf/5.3.0/../../../../../H-x86_64-pc-linux-gnu/nios2-elf/lib/mhw-mulx/libc.a(lib_a-__call_atexit.o)
                0x00000000000241e4                __call_exitprocs
 .text          0x0000000000024364       0x34 ../ucos2nios2_bsp//libucosii_bsp.a(alt_exit.o)
                0x0000000000024364                _exit
 *(.gnu.warning.*)
 *(.fini)
                [!provide]                        PROVIDE (__etext, ABSOLUTE (.))
                [!provide]                        PROVIDE (_etext, ABSOLUTE (.))
                [!provide]                        PROVIDE (etext, ABSOLUTE (.))
 *(.eh_frame_hdr)
                0x0000000000024398                . = ALIGN (0x4)
                [!provide]                        PROVIDE (__preinit_array_start, ABSOLUTE (.))
 *(.preinit_array)
                [!provide]                        PROVIDE (__preinit_array_end, ABSOLUTE (.))
                [!provide]                        PROVIDE (__init_array_start, ABSOLUTE (.))
 *(.init_array)
                [!provide]                        PROVIDE (__init_array_end, ABSOLUTE (.))
                [!provide]                        PROVIDE (__fini_array_start, ABSOLUTE (.))
 *(.fini_array)
                [!provide]                        PROVIDE (__fini_array_end, ABSOLUTE (.))
 *(.eh_frame)
 *(.gcc_except_table .gcc_except_table.*)
 *(.dynamic)
                0x0000000000024398                PROVIDE (__CTOR_LIST__, ABSOLUTE (.))
 *(.ctors)
 *(SORT(.ctors.*))
                0x0000000000024398                PROVIDE (__CTOR_END__, ABSOLUTE (.))
                0x0000000000024398                PROVIDE (__DTOR_LIST__, ABSOLUTE (.))
 *(.dtors)
 *(SORT(.dtors.*))
                0x0000000000024398                PROVIDE (__DTOR_END__, ABSOLUTE (.))
 *(.jcr)
                0x0000000000024398                . = ALIGN (0x4)

.rodata         0x0000000000024398      0xa40
                0x0000000000024398                PROVIDE (__ram_rodata_start, ABSOLUTE (.))
                0x0000000000024398                . = ALIGN (0x4)
 *(.rodata .rodata.* .gnu.linkonce.r.*)
 .rodata        0x0000000000024398      0x25a obj/default/pong.o
 *fill*         0x00000000000245f2        0x2 
 .rodata.str1.4
                0x00000000000245f4        0x2 /opt/intelFPGA/18.1/nios2eds/bin/gnu/H-x86_64-pc-linux-gnu/bin/../lib/gcc/nios2-elf/5.3.0/../../../../../H-x86_64-pc-linux-gnu/nios2-elf/lib/mhw-mulx/libc.a(lib_a-puts.o)
 *fill*         0x00000000000245f6        0x2 
 .rodata.str1.4
                0x00000000000245f8       0x42 /opt/intelFPGA/18.1/nios2eds/bin/gnu/H-x86_64-pc-linux-gnu/bin/../lib/gcc/nios2-elf/5.3.0/../../../../../H-x86_64-pc-linux-gnu/nios2-elf/lib/mhw-mulx/libc.a(lib_a-svfprintf.o)
 .rodata.zeroes.4389
                0x000000000002463a       0x10 /opt/intelFPGA/18.1/nios2eds/bin/gnu/H-x86_64-pc-linux-gnu/bin/../lib/gcc/nios2-elf/5.3.0/../../../../../H-x86_64-pc-linux-gnu/nios2-elf/lib/mhw-mulx/libc.a(lib_a-svfprintf.o)
 .rodata.blanks.4388
                0x000000000002464a       0x10 /opt/intelFPGA/18.1/nios2eds/bin/gnu/H-x86_64-pc-linux-gnu/bin/../lib/gcc/nios2-elf/5.3.0/../../../../../H-x86_64-pc-linux-gnu/nios2-elf/lib/mhw-mulx/libc.a(lib_a-svfprintf.o)
 .rodata.str1.4
                0x000000000002465a       0x42 /opt/intelFPGA/18.1/nios2eds/bin/gnu/H-x86_64-pc-linux-gnu/bin/../lib/gcc/nios2-elf/5.3.0/../../../../../H-x86_64-pc-linux-gnu/nios2-elf/lib/mhw-mulx/libc.a(lib_a-vfprintf.o)
 .rodata.zeroes.4404
                0x000000000002465a       0x10 /opt/intelFPGA/18.1/nios2eds/bin/gnu/H-x86_64-pc-linux-gnu/bin/../lib/gcc/nios2-elf/5.3.0/../../../../../H-x86_64-pc-linux-gnu/nios2-elf/lib/mhw-mulx/libc.a(lib_a-vfprintf.o)
 .rodata.blanks.4403
                0x000000000002466a       0x10 /opt/intelFPGA/18.1/nios2eds/bin/gnu/H-x86_64-pc-linux-gnu/bin/../lib/gcc/nios2-elf/5.3.0/../../../../../H-x86_64-pc-linux-gnu/nios2-elf/lib/mhw-mulx/libc.a(lib_a-vfprintf.o)
 *fill*         0x000000000002467a        0x2 
 .rodata.str1.4
                0x000000000002467c       0x10 /opt/intelFPGA/18.1/nios2eds/bin/gnu/H-x86_64-pc-linux-gnu/bin/../lib/gcc/nios2-elf/5.3.0/../../../../../H-x86_64-pc-linux-gnu/nios2-elf/lib/mhw-mulx/libc.a(lib_a-dtoa.o)
                                         0x12 (size before relaxing)
 .rodata.str1.4
                0x000000000002468c        0x2 /opt/intelFPGA/18.1/nios2eds/bin/gnu/H-x86_64-pc-linux-gnu/bin/../lib/gcc/nios2-elf/5.3.0/../../../../../H-x86_64-pc-linux-gnu/nios2-elf/lib/mhw-mulx/libc.a(lib_a-impure.o)
 *fill*         0x000000000002468e        0x2 
 .rodata.str1.4
                0x0000000000024690        0xc /opt/intelFPGA/18.1/nios2eds/bin/gnu/H-x86_64-pc-linux-gnu/bin/../lib/gcc/nios2-elf/5.3.0/../../../../../H-x86_64-pc-linux-gnu/nios2-elf/lib/mhw-mulx/libc.a(lib_a-locale.o)
                                         0x12 (size before relaxing)
 .rodata.p05.2768
                0x000000000002469c        0xc /opt/intelFPGA/18.1/nios2eds/bin/gnu/H-x86_64-pc-linux-gnu/bin/../lib/gcc/nios2-elf/5.3.0/../../../../../H-x86_64-pc-linux-gnu/nios2-elf/lib/mhw-mulx/libc.a(lib_a-mprec.o)
 .rodata.__mprec_tinytens
                0x00000000000246a8       0x28 /opt/intelFPGA/18.1/nios2eds/bin/gnu/H-x86_64-pc-linux-gnu/bin/../lib/gcc/nios2-elf/5.3.0/../../../../../H-x86_64-pc-linux-gnu/nios2-elf/lib/mhw-mulx/libc.a(lib_a-mprec.o)
                0x00000000000246a8                __mprec_tinytens
 .rodata.__mprec_bigtens
                0x00000000000246d0       0x28 /opt/intelFPGA/18.1/nios2eds/bin/gnu/H-x86_64-pc-linux-gnu/bin/../lib/gcc/nios2-elf/5.3.0/../../../../../H-x86_64-pc-linux-gnu/nios2-elf/lib/mhw-mulx/libc.a(lib_a-mprec.o)
                0x00000000000246d0                __mprec_bigtens
 .rodata.__mprec_tens
                0x00000000000246f8       0xc8 /opt/intelFPGA/18.1/nios2eds/bin/gnu/H-x86_64-pc-linux-gnu/bin/../lib/gcc/nios2-elf/5.3.0/../../../../../H-x86_64-pc-linux-gnu/nios2-elf/lib/mhw-mulx/libc.a(lib_a-mprec.o)
                0x00000000000246f8                __mprec_tens
 .rodata.str1.4
                0x00000000000247c0       0x2f /opt/intelFPGA/18.1/nios2eds/bin/gnu/H-x86_64-pc-linux-gnu/bin/../lib/gcc/nios2-elf/5.3.0/../../../../../H-x86_64-pc-linux-gnu/nios2-elf/lib/mhw-mulx/libc.a(lib_a-svfiprintf.o)
 .rodata.zeroes.4333
                0x00000000000247c0       0x10 /opt/intelFPGA/18.1/nios2eds/bin/gnu/H-x86_64-pc-linux-gnu/bin/../lib/gcc/nios2-elf/5.3.0/../../../../../H-x86_64-pc-linux-gnu/nios2-elf/lib/mhw-mulx/libc.a(lib_a-svfiprintf.o)
 .rodata.blanks.4332
                0x00000000000247d0       0x10 /opt/intelFPGA/18.1/nios2eds/bin/gnu/H-x86_64-pc-linux-gnu/bin/../lib/gcc/nios2-elf/5.3.0/../../../../../H-x86_64-pc-linux-gnu/nios2-elf/lib/mhw-mulx/libc.a(lib_a-svfiprintf.o)
 .rodata.str1.4
                0x00000000000247e0       0x2f /opt/intelFPGA/18.1/nios2eds/bin/gnu/H-x86_64-pc-linux-gnu/bin/../lib/gcc/nios2-elf/5.3.0/../../../../../H-x86_64-pc-linux-gnu/nios2-elf/lib/mhw-mulx/libc.a(lib_a-vfiprintf.o)
 .rodata.zeroes.4349
                0x00000000000247e0       0x10 /opt/intelFPGA/18.1/nios2eds/bin/gnu/H-x86_64-pc-linux-gnu/bin/../lib/gcc/nios2-elf/5.3.0/../../../../../H-x86_64-pc-linux-gnu/nios2-elf/lib/mhw-mulx/libc.a(lib_a-vfiprintf.o)
 .rodata.blanks.4348
                0x00000000000247f0       0x10 /opt/intelFPGA/18.1/nios2eds/bin/gnu/H-x86_64-pc-linux-gnu/bin/../lib/gcc/nios2-elf/5.3.0/../../../../../H-x86_64-pc-linux-gnu/nios2-elf/lib/mhw-mulx/libc.a(lib_a-vfiprintf.o)
 .rodata        0x0000000000024800      0x100 /opt/intelFPGA/18.1/nios2eds/bin/gnu/H-x86_64-pc-linux-gnu/bin/../lib/gcc/nios2-elf/5.3.0/mhw-mulx/libgcc.a(_clz.o)
                0x0000000000024800                __clz_tab
 .rodata        0x0000000000024900        0xa ../ucos2nios2_bsp//libucosii_bsp.a(alt_dev.o)
 *fill*         0x000000000002490a        0x2 
 .rodata        0x000000000002490c        0xf ../ucos2nios2_bsp//libucosii_bsp.a(alt_main.o)
 *fill*         0x000000000002491b        0x1 
 .rodata        0x000000000002491c      0x11e ../ucos2nios2_bsp//libucosii_bsp.a(os_core.o)
                0x000000000002491c                OSUnMapTbl
 *fill*         0x0000000000024a3a        0x2 
 .rodata        0x0000000000024a3c      0x159 ../ucos2nios2_bsp//libucosii_bsp.a(alt_sys_init.o)
 *fill*         0x0000000000024b95        0x3 
 .rodata        0x0000000000024b98      0x239 ../ucos2nios2_bsp//libucosii_bsp.a(altera_up_ps2_keyboard.o)
 *fill*         0x0000000000024dd1        0x3 
 .rodata        0x0000000000024dd4        0x2 ../ucos2nios2_bsp//libucosii_bsp.a(os_cpu_c.o)
 *(.rodata1)
                0x0000000000024dd8                . = ALIGN (0x4)
 *fill*         0x0000000000024dd6        0x2 
                0x0000000000024dd8                PROVIDE (__ram_rodata_end, ABSOLUTE (.))
                0x0000000000024398                PROVIDE (__flash_rodata_start, LOADADDR (.rodata))

.rwdata         0x0000000000024dd8     0x21b8 load address 0x0000000000026f90
                0x0000000000024dd8                PROVIDE (__ram_rwdata_start, ABSOLUTE (.))
                0x0000000000024dd8                . = ALIGN (0x4)
 *(.got.plt)
 *(.got)
 *(.data1)
 *(.data .data.* .gnu.linkonce.d.*)
 .data          0x0000000000024dd8        0x0 ../ucos2nios2_bsp//obj/HAL/src/crt0.o
 .data          0x0000000000024dd8       0x20 obj/default/pong.o
                0x0000000000024dd8                chop
 .data          0x0000000000024df8        0x0 obj/default/vga_stuff.o
 .data          0x0000000000024df8        0x0 /opt/intelFPGA/18.1/nios2eds/bin/gnu/H-x86_64-pc-linux-gnu/bin/../lib/gcc/nios2-elf/5.3.0/../../../../../H-x86_64-pc-linux-gnu/nios2-elf/lib/mhw-mulx/libc.a(lib_a-malloc.o)
 .data          0x0000000000024df8        0x0 /opt/intelFPGA/18.1/nios2eds/bin/gnu/H-x86_64-pc-linux-gnu/bin/../lib/gcc/nios2-elf/5.3.0/../../../../../H-x86_64-pc-linux-gnu/nios2-elf/lib/mhw-mulx/libc.a(lib_a-mallocr.o)
 .data.__malloc_av_
                0x0000000000024df8      0x408 /opt/intelFPGA/18.1/nios2eds/bin/gnu/H-x86_64-pc-linux-gnu/bin/../lib/gcc/nios2-elf/5.3.0/../../../../../H-x86_64-pc-linux-gnu/nios2-elf/lib/mhw-mulx/libc.a(lib_a-mallocr.o)
                0x0000000000024df8                __malloc_av_
 .data          0x0000000000025200        0x0 /opt/intelFPGA/18.1/nios2eds/bin/gnu/H-x86_64-pc-linux-gnu/bin/../lib/gcc/nios2-elf/5.3.0/../../../../../H-x86_64-pc-linux-gnu/nios2-elf/lib/mhw-mulx/libc.a(lib_a-printf.o)
 .data          0x0000000000025200        0x0 /opt/intelFPGA/18.1/nios2eds/bin/gnu/H-x86_64-pc-linux-gnu/bin/../lib/gcc/nios2-elf/5.3.0/../../../../../H-x86_64-pc-linux-gnu/nios2-elf/lib/mhw-mulx/libc.a(lib_a-puts.o)
 .data          0x0000000000025200        0x0 /opt/intelFPGA/18.1/nios2eds/bin/gnu/H-x86_64-pc-linux-gnu/bin/../lib/gcc/nios2-elf/5.3.0/../../../../../H-x86_64-pc-linux-gnu/nios2-elf/lib/mhw-mulx/libc.a(lib_a-sbrkr.o)
 .data          0x0000000000025200        0x0 /opt/intelFPGA/18.1/nios2eds/bin/gnu/H-x86_64-pc-linux-gnu/bin/../lib/gcc/nios2-elf/5.3.0/../../../../../H-x86_64-pc-linux-gnu/nios2-elf/lib/mhw-mulx/libc.a(lib_a-snprintf.o)
 .data          0x0000000000025200        0x0 /opt/intelFPGA/18.1/nios2eds/bin/gnu/H-x86_64-pc-linux-gnu/bin/../lib/gcc/nios2-elf/5.3.0/../../../../../H-x86_64-pc-linux-gnu/nios2-elf/lib/mhw-mulx/libc.a(lib_a-strcat.o)
 .data          0x0000000000025200        0x0 /opt/intelFPGA/18.1/nios2eds/bin/gnu/H-x86_64-pc-linux-gnu/bin/../lib/gcc/nios2-elf/5.3.0/../../../../../H-x86_64-pc-linux-gnu/nios2-elf/lib/mhw-mulx/libc.a(lib_a-strcpy.o)
 .data          0x0000000000025200        0x0 /opt/intelFPGA/18.1/nios2eds/bin/gnu/H-x86_64-pc-linux-gnu/bin/../lib/gcc/nios2-elf/5.3.0/../../../../../H-x86_64-pc-linux-gnu/nios2-elf/lib/mhw-mulx/libc.a(lib_a-strlen.o)
 .data          0x0000000000025200        0x0 /opt/intelFPGA/18.1/nios2eds/bin/gnu/H-x86_64-pc-linux-gnu/bin/../lib/gcc/nios2-elf/5.3.0/../../../../../H-x86_64-pc-linux-gnu/nios2-elf/lib/mhw-mulx/libc.a(lib_a-svfprintf.o)
 .data          0x0000000000025200        0x0 /opt/intelFPGA/18.1/nios2eds/bin/gnu/H-x86_64-pc-linux-gnu/bin/../lib/gcc/nios2-elf/5.3.0/../../../../../H-x86_64-pc-linux-gnu/nios2-elf/lib/mhw-mulx/libc.a(lib_a-vfprintf.o)
 .data          0x0000000000025200        0x0 /opt/intelFPGA/18.1/nios2eds/bin/gnu/H-x86_64-pc-linux-gnu/bin/../lib/gcc/nios2-elf/5.3.0/../../../../../H-x86_64-pc-linux-gnu/nios2-elf/lib/mhw-mulx/libc.a(lib_a-wsetup.o)
 .data          0x0000000000025200        0x0 /opt/intelFPGA/18.1/nios2eds/bin/gnu/H-x86_64-pc-linux-gnu/bin/../lib/gcc/nios2-elf/5.3.0/../../../../../H-x86_64-pc-linux-gnu/nios2-elf/lib/mhw-mulx/libc.a(lib_a-dtoa.o)
 .data          0x0000000000025200        0x0 /opt/intelFPGA/18.1/nios2eds/bin/gnu/H-x86_64-pc-linux-gnu/bin/../lib/gcc/nios2-elf/5.3.0/../../../../../H-x86_64-pc-linux-gnu/nios2-elf/lib/mhw-mulx/libc.a(lib_a-fflush.o)
 .data          0x0000000000025200        0x0 /opt/intelFPGA/18.1/nios2eds/bin/gnu/H-x86_64-pc-linux-gnu/bin/../lib/gcc/nios2-elf/5.3.0/../../../../../H-x86_64-pc-linux-gnu/nios2-elf/lib/mhw-mulx/libc.a(lib_a-findfp.o)
 .data          0x0000000000025200        0x0 /opt/intelFPGA/18.1/nios2eds/bin/gnu/H-x86_64-pc-linux-gnu/bin/../lib/gcc/nios2-elf/5.3.0/../../../../../H-x86_64-pc-linux-gnu/nios2-elf/lib/mhw-mulx/libc.a(lib_a-freer.o)
 .data          0x0000000000025200        0x0 /opt/intelFPGA/18.1/nios2eds/bin/gnu/H-x86_64-pc-linux-gnu/bin/../lib/gcc/nios2-elf/5.3.0/../../../../../H-x86_64-pc-linux-gnu/nios2-elf/lib/mhw-mulx/libc.a(lib_a-fvwrite.o)
 .data          0x0000000000025200        0x0 /opt/intelFPGA/18.1/nios2eds/bin/gnu/H-x86_64-pc-linux-gnu/bin/../lib/gcc/nios2-elf/5.3.0/../../../../../H-x86_64-pc-linux-gnu/nios2-elf/lib/mhw-mulx/libc.a(lib_a-fwalk.o)
 .data          0x0000000000025200        0x0 /opt/intelFPGA/18.1/nios2eds/bin/gnu/H-x86_64-pc-linux-gnu/bin/../lib/gcc/nios2-elf/5.3.0/../../../../../H-x86_64-pc-linux-gnu/nios2-elf/lib/mhw-mulx/libc.a(lib_a-impure.o)
 .data.impure_data
                0x0000000000025200      0x424 /opt/intelFPGA/18.1/nios2eds/bin/gnu/H-x86_64-pc-linux-gnu/bin/../lib/gcc/nios2-elf/5.3.0/../../../../../H-x86_64-pc-linux-gnu/nios2-elf/lib/mhw-mulx/libc.a(lib_a-impure.o)
 .data          0x0000000000025624        0x0 /opt/intelFPGA/18.1/nios2eds/bin/gnu/H-x86_64-pc-linux-gnu/bin/../lib/gcc/nios2-elf/5.3.0/../../../../../H-x86_64-pc-linux-gnu/nios2-elf/lib/mhw-mulx/libc.a(lib_a-int_errno.o)
 .data          0x0000000000025624        0x0 /opt/intelFPGA/18.1/nios2eds/bin/gnu/H-x86_64-pc-linux-gnu/bin/../lib/gcc/nios2-elf/5.3.0/../../../../../H-x86_64-pc-linux-gnu/nios2-elf/lib/mhw-mulx/libc.a(lib_a-locale.o)
 .data.lc_message_charset
                0x0000000000025624       0x20 /opt/intelFPGA/18.1/nios2eds/bin/gnu/H-x86_64-pc-linux-gnu/bin/../lib/gcc/nios2-elf/5.3.0/../../../../../H-x86_64-pc-linux-gnu/nios2-elf/lib/mhw-mulx/libc.a(lib_a-locale.o)
 .data.lc_ctype_charset
                0x0000000000025644       0x20 /opt/intelFPGA/18.1/nios2eds/bin/gnu/H-x86_64-pc-linux-gnu/bin/../lib/gcc/nios2-elf/5.3.0/../../../../../H-x86_64-pc-linux-gnu/nios2-elf/lib/mhw-mulx/libc.a(lib_a-locale.o)
 .data.lconv    0x0000000000025664       0x38 /opt/intelFPGA/18.1/nios2eds/bin/gnu/H-x86_64-pc-linux-gnu/bin/../lib/gcc/nios2-elf/5.3.0/../../../../../H-x86_64-pc-linux-gnu/nios2-elf/lib/mhw-mulx/libc.a(lib_a-locale.o)
 .data          0x000000000002569c        0x0 /opt/intelFPGA/18.1/nios2eds/bin/gnu/H-x86_64-pc-linux-gnu/bin/../lib/gcc/nios2-elf/5.3.0/../../../../../H-x86_64-pc-linux-gnu/nios2-elf/lib/mhw-mulx/libc.a(lib_a-makebuf.o)
 .data          0x000000000002569c        0x0 /opt/intelFPGA/18.1/nios2eds/bin/gnu/H-x86_64-pc-linux-gnu/bin/../lib/gcc/nios2-elf/5.3.0/../../../../../H-x86_64-pc-linux-gnu/nios2-elf/lib/mhw-mulx/libc.a(lib_a-memchr.o)
 .data          0x000000000002569c        0x0 /opt/intelFPGA/18.1/nios2eds/bin/gnu/H-x86_64-pc-linux-gnu/bin/../lib/gcc/nios2-elf/5.3.0/../../../../../H-x86_64-pc-linux-gnu/nios2-elf/lib/mhw-mulx/libc.a(lib_a-memcpy.o)
 .data          0x000000000002569c        0x0 /opt/intelFPGA/18.1/nios2eds/bin/gnu/H-x86_64-pc-linux-gnu/bin/../lib/gcc/nios2-elf/5.3.0/../../../../../H-x86_64-pc-linux-gnu/nios2-elf/lib/mhw-mulx/libc.a(lib_a-memmove.o)
 .data          0x000000000002569c        0x0 /opt/intelFPGA/18.1/nios2eds/bin/gnu/H-x86_64-pc-linux-gnu/bin/../lib/gcc/nios2-elf/5.3.0/../../../../../H-x86_64-pc-linux-gnu/nios2-elf/lib/mhw-mulx/libc.a(lib_a-memset.o)
 .data          0x000000000002569c        0x0 /opt/intelFPGA/18.1/nios2eds/bin/gnu/H-x86_64-pc-linux-gnu/bin/../lib/gcc/nios2-elf/5.3.0/../../../../../H-x86_64-pc-linux-gnu/nios2-elf/lib/mhw-mulx/libc.a(lib_a-mprec.o)
 .data          0x000000000002569c        0x0 /opt/intelFPGA/18.1/nios2eds/bin/gnu/H-x86_64-pc-linux-gnu/bin/../lib/gcc/nios2-elf/5.3.0/../../../../../H-x86_64-pc-linux-gnu/nios2-elf/lib/mhw-mulx/libc.a(lib_a-reallocr.o)
 .data          0x000000000002569c        0x0 /opt/intelFPGA/18.1/nios2eds/bin/gnu/H-x86_64-pc-linux-gnu/bin/../lib/gcc/nios2-elf/5.3.0/../../../../../H-x86_64-pc-linux-gnu/nios2-elf/lib/mhw-mulx/libc.a(lib_a-s_fpclassify.o)
 .data          0x000000000002569c        0x0 /opt/intelFPGA/18.1/nios2eds/bin/gnu/H-x86_64-pc-linux-gnu/bin/../lib/gcc/nios2-elf/5.3.0/../../../../../H-x86_64-pc-linux-gnu/nios2-elf/lib/mhw-mulx/libc.a(lib_a-stdio.o)
 .data          0x000000000002569c        0x0 /opt/intelFPGA/18.1/nios2eds/bin/gnu/H-x86_64-pc-linux-gnu/bin/../lib/gcc/nios2-elf/5.3.0/../../../../../H-x86_64-pc-linux-gnu/nios2-elf/lib/mhw-mulx/libc.a(lib_a-strcmp.o)
 .data          0x000000000002569c        0x0 /opt/intelFPGA/18.1/nios2eds/bin/gnu/H-x86_64-pc-linux-gnu/bin/../lib/gcc/nios2-elf/5.3.0/../../../../../H-x86_64-pc-linux-gnu/nios2-elf/lib/mhw-mulx/libc.a(lib_a-svfiprintf.o)
 .data          0x000000000002569c        0x0 /opt/intelFPGA/18.1/nios2eds/bin/gnu/H-x86_64-pc-linux-gnu/bin/../lib/gcc/nios2-elf/5.3.0/../../../../../H-x86_64-pc-linux-gnu/nios2-elf/lib/mhw-mulx/libc.a(lib_a-vfiprintf.o)
 .data          0x000000000002569c        0x0 /opt/intelFPGA/18.1/nios2eds/bin/gnu/H-x86_64-pc-linux-gnu/bin/../lib/gcc/nios2-elf/5.3.0/../../../../../H-x86_64-pc-linux-gnu/nios2-elf/lib/mhw-mulx/libc.a(lib_a-writer.o)
 .data          0x000000000002569c        0x0 /opt/intelFPGA/18.1/nios2eds/bin/gnu/H-x86_64-pc-linux-gnu/bin/../lib/gcc/nios2-elf/5.3.0/../../../../../H-x86_64-pc-linux-gnu/nios2-elf/lib/mhw-mulx/libc.a(closer.o)
 .data          0x000000000002569c        0x0 /opt/intelFPGA/18.1/nios2eds/bin/gnu/H-x86_64-pc-linux-gnu/bin/../lib/gcc/nios2-elf/5.3.0/../../../../../H-x86_64-pc-linux-gnu/nios2-elf/lib/mhw-mulx/libc.a(lib_a-callocr.o)
 .data          0x000000000002569c        0x0 /opt/intelFPGA/18.1/nios2eds/bin/gnu/H-x86_64-pc-linux-gnu/bin/../lib/gcc/nios2-elf/5.3.0/../../../../../H-x86_64-pc-linux-gnu/nios2-elf/lib/mhw-mulx/libc.a(lib_a-fclose.o)
 .data          0x000000000002569c        0x0 /opt/intelFPGA/18.1/nios2eds/bin/gnu/H-x86_64-pc-linux-gnu/bin/../lib/gcc/nios2-elf/5.3.0/../../../../../H-x86_64-pc-linux-gnu/nios2-elf/lib/mhw-mulx/libc.a(lib_a-fputwc.o)
 .data          0x000000000002569c        0x0 /opt/intelFPGA/18.1/nios2eds/bin/gnu/H-x86_64-pc-linux-gnu/bin/../lib/gcc/nios2-elf/5.3.0/../../../../../H-x86_64-pc-linux-gnu/nios2-elf/lib/mhw-mulx/libc.a(lib_a-fstatr.o)
 .data          0x000000000002569c        0x0 /opt/intelFPGA/18.1/nios2eds/bin/gnu/H-x86_64-pc-linux-gnu/bin/../lib/gcc/nios2-elf/5.3.0/../../../../../H-x86_64-pc-linux-gnu/nios2-elf/lib/mhw-mulx/libc.a(lib_a-isattyr.o)
 .data          0x000000000002569c        0x0 /opt/intelFPGA/18.1/nios2eds/bin/gnu/H-x86_64-pc-linux-gnu/bin/../lib/gcc/nios2-elf/5.3.0/../../../../../H-x86_64-pc-linux-gnu/nios2-elf/lib/mhw-mulx/libc.a(lib_a-lseekr.o)
 .data          0x000000000002569c        0x0 /opt/intelFPGA/18.1/nios2eds/bin/gnu/H-x86_64-pc-linux-gnu/bin/../lib/gcc/nios2-elf/5.3.0/../../../../../H-x86_64-pc-linux-gnu/nios2-elf/lib/mhw-mulx/libc.a(lib_a-readr.o)
 .data          0x000000000002569c        0x0 /opt/intelFPGA/18.1/nios2eds/bin/gnu/H-x86_64-pc-linux-gnu/bin/../lib/gcc/nios2-elf/5.3.0/../../../../../H-x86_64-pc-linux-gnu/nios2-elf/lib/mhw-mulx/libc.a(lib_a-wbuf.o)
 .data          0x000000000002569c        0x0 /opt/intelFPGA/18.1/nios2eds/bin/gnu/H-x86_64-pc-linux-gnu/bin/../lib/gcc/nios2-elf/5.3.0/../../../../../H-x86_64-pc-linux-gnu/nios2-elf/lib/mhw-mulx/libc.a(lib_a-wcrtomb.o)
 .data          0x000000000002569c        0x0 /opt/intelFPGA/18.1/nios2eds/bin/gnu/H-x86_64-pc-linux-gnu/bin/../lib/gcc/nios2-elf/5.3.0/../../../../../H-x86_64-pc-linux-gnu/nios2-elf/lib/mhw-mulx/libc.a(lib_a-wctomb_r.o)
 .data          0x000000000002569c        0x0 /opt/intelFPGA/18.1/nios2eds/bin/gnu/H-x86_64-pc-linux-gnu/bin/../lib/gcc/nios2-elf/5.3.0/mhw-mulx/libgcc.a(_udivdi3.o)
 .data          0x000000000002569c        0x0 /opt/intelFPGA/18.1/nios2eds/bin/gnu/H-x86_64-pc-linux-gnu/bin/../lib/gcc/nios2-elf/5.3.0/mhw-mulx/libgcc.a(_umoddi3.o)
 .data          0x000000000002569c        0x0 /opt/intelFPGA/18.1/nios2eds/bin/gnu/H-x86_64-pc-linux-gnu/bin/../lib/gcc/nios2-elf/5.3.0/mhw-mulx/libgcc.a(lib2-divmod.o)
 .data          0x000000000002569c        0x0 /opt/intelFPGA/18.1/nios2eds/bin/gnu/H-x86_64-pc-linux-gnu/bin/../lib/gcc/nios2-elf/5.3.0/mhw-mulx/libgcc.a(adddf3.o)
 .data          0x000000000002569c        0x0 /opt/intelFPGA/18.1/nios2eds/bin/gnu/H-x86_64-pc-linux-gnu/bin/../lib/gcc/nios2-elf/5.3.0/mhw-mulx/libgcc.a(divdf3.o)
 .data          0x000000000002569c        0x0 /opt/intelFPGA/18.1/nios2eds/bin/gnu/H-x86_64-pc-linux-gnu/bin/../lib/gcc/nios2-elf/5.3.0/mhw-mulx/libgcc.a(eqdf2.o)
 .data          0x000000000002569c        0x0 /opt/intelFPGA/18.1/nios2eds/bin/gnu/H-x86_64-pc-linux-gnu/bin/../lib/gcc/nios2-elf/5.3.0/mhw-mulx/libgcc.a(gedf2.o)
 .data          0x000000000002569c        0x0 /opt/intelFPGA/18.1/nios2eds/bin/gnu/H-x86_64-pc-linux-gnu/bin/../lib/gcc/nios2-elf/5.3.0/mhw-mulx/libgcc.a(ledf2.o)
 .data          0x000000000002569c        0x0 /opt/intelFPGA/18.1/nios2eds/bin/gnu/H-x86_64-pc-linux-gnu/bin/../lib/gcc/nios2-elf/5.3.0/mhw-mulx/libgcc.a(muldf3.o)
 .data          0x000000000002569c        0x0 /opt/intelFPGA/18.1/nios2eds/bin/gnu/H-x86_64-pc-linux-gnu/bin/../lib/gcc/nios2-elf/5.3.0/mhw-mulx/libgcc.a(subdf3.o)
 .data          0x000000000002569c        0x0 /opt/intelFPGA/18.1/nios2eds/bin/gnu/H-x86_64-pc-linux-gnu/bin/../lib/gcc/nios2-elf/5.3.0/mhw-mulx/libgcc.a(fixdfsi.o)
 .data          0x000000000002569c        0x0 /opt/intelFPGA/18.1/nios2eds/bin/gnu/H-x86_64-pc-linux-gnu/bin/../lib/gcc/nios2-elf/5.3.0/mhw-mulx/libgcc.a(floatsidf.o)
 .data          0x000000000002569c        0x0 /opt/intelFPGA/18.1/nios2eds/bin/gnu/H-x86_64-pc-linux-gnu/bin/../lib/gcc/nios2-elf/5.3.0/mhw-mulx/libgcc.a(floatunsidf.o)
 .data          0x000000000002569c        0x0 /opt/intelFPGA/18.1/nios2eds/bin/gnu/H-x86_64-pc-linux-gnu/bin/../lib/gcc/nios2-elf/5.3.0/mhw-mulx/libgcc.a(_clz.o)
 .data          0x000000000002569c        0x0 /opt/intelFPGA/18.1/nios2eds/bin/gnu/H-x86_64-pc-linux-gnu/bin/../lib/gcc/nios2-elf/5.3.0/mhw-mulx/libgcc.a(_clzsi2.o)
 .data          0x000000000002569c        0x0 ../ucos2nios2_bsp//libucosii_bsp.a(alt_close.o)
 .data          0x000000000002569c      0x1a8 ../ucos2nios2_bsp//libucosii_bsp.a(alt_dev.o)
                0x000000000002569c                alt_dev_null
                0x00000000000256c4                alt_fd_list
 .data          0x0000000000025844        0x0 ../ucos2nios2_bsp//libucosii_bsp.a(alt_errno.o)
 .data          0x0000000000025844        0x0 ../ucos2nios2_bsp//libucosii_bsp.a(alt_fstat.o)
 .data          0x0000000000025844        0x0 ../ucos2nios2_bsp//libucosii_bsp.a(alt_isatty.o)
 .data          0x0000000000025844        0x0 ../ucos2nios2_bsp//libucosii_bsp.a(alt_load.o)
 .data          0x0000000000025844        0x0 ../ucos2nios2_bsp//libucosii_bsp.a(alt_lseek.o)
 .data          0x0000000000025844        0x0 ../ucos2nios2_bsp//libucosii_bsp.a(alt_main.o)
 .data          0x0000000000025844        0x0 ../ucos2nios2_bsp//libucosii_bsp.a(alt_read.o)
 .data          0x0000000000025844        0x0 ../ucos2nios2_bsp//libucosii_bsp.a(alt_release_fd.o)
 .data          0x0000000000025844        0x0 ../ucos2nios2_bsp//libucosii_bsp.a(alt_sbrk.o)
 .data          0x0000000000025844        0x0 ../ucos2nios2_bsp//libucosii_bsp.a(alt_write.o)
 .data          0x0000000000025844        0x0 ../ucos2nios2_bsp//libucosii_bsp.a(alt_env_lock.o)
 .data          0x0000000000025844        0x0 ../ucos2nios2_bsp//libucosii_bsp.a(alt_malloc_lock.o)
 .data          0x0000000000025844        0x0 ../ucos2nios2_bsp//libucosii_bsp.a(os_core.o)
 .data          0x0000000000025844        0x0 ../ucos2nios2_bsp//libucosii_bsp.a(os_dbg.o)
 .data          0x0000000000025844        0x0 ../ucos2nios2_bsp//libucosii_bsp.a(os_flag.o)
 .data          0x0000000000025844        0x0 ../ucos2nios2_bsp//libucosii_bsp.a(os_mbox.o)
 .data          0x0000000000025844        0x0 ../ucos2nios2_bsp//libucosii_bsp.a(os_mem.o)
 .data          0x0000000000025844        0x0 ../ucos2nios2_bsp//libucosii_bsp.a(os_q.o)
 .data          0x0000000000025844        0x0 ../ucos2nios2_bsp//libucosii_bsp.a(os_sem.o)
 .data          0x0000000000025844        0x0 ../ucos2nios2_bsp//libucosii_bsp.a(os_task.o)
 .data          0x0000000000025844        0x0 ../ucos2nios2_bsp//libucosii_bsp.a(os_time.o)
 .data          0x0000000000025844     0x1378 ../ucos2nios2_bsp//libucosii_bsp.a(alt_sys_init.o)
 .data          0x0000000000026bbc        0x0 ../ucos2nios2_bsp//libucosii_bsp.a(Altera_UP_SD_Card_Avalon_Interface.o)
 .data          0x0000000000026bbc        0x0 ../ucos2nios2_bsp//libucosii_bsp.a(altera_avalon_jtag_uart_fd.o)
 .data          0x0000000000026bbc        0x0 ../ucos2nios2_bsp//libucosii_bsp.a(altera_avalon_jtag_uart_init.o)
 .data          0x0000000000026bbc        0x0 ../ucos2nios2_bsp//libucosii_bsp.a(altera_avalon_jtag_uart_ioctl.o)
 .data          0x0000000000026bbc        0x0 ../ucos2nios2_bsp//libucosii_bsp.a(altera_avalon_jtag_uart_read.o)
 .data          0x0000000000026bbc        0x0 ../ucos2nios2_bsp//libucosii_bsp.a(altera_avalon_jtag_uart_write.o)
 .data          0x0000000000026bbc        0x0 ../ucos2nios2_bsp//libucosii_bsp.a(altera_avalon_timer_sc.o)
 .data          0x0000000000026bbc        0x0 ../ucos2nios2_bsp//libucosii_bsp.a(altera_up_avalon_audio.o)
 .data          0x0000000000026bbc        0x0 ../ucos2nios2_bsp//libucosii_bsp.a(altera_up_avalon_character_lcd.o)
 .data          0x0000000000026bbc        0x0 ../ucos2nios2_bsp//libucosii_bsp.a(altera_up_avalon_irda.o)
 .data          0x0000000000026bbc        0x0 ../ucos2nios2_bsp//libucosii_bsp.a(altera_up_avalon_ps2.o)
 .data          0x0000000000026bbc        0x0 ../ucos2nios2_bsp//libucosii_bsp.a(altera_up_avalon_rs232.o)
 .data          0x0000000000026bbc      0x2ca ../ucos2nios2_bsp//libucosii_bsp.a(altera_up_ps2_keyboard.o)
                0x0000000000026bbc                key_table
                0x0000000000026d54                ascii_codes
                0x0000000000026dba                single_byte_make_code
                0x0000000000026e20                multi_byte_make_code
 .data          0x0000000000026e86        0x0 ../ucos2nios2_bsp//libucosii_bsp.a(alt_alarm_start.o)
 .data          0x0000000000026e86        0x0 ../ucos2nios2_bsp//libucosii_bsp.a(alt_dcache_flush_all.o)
 .data          0x0000000000026e86        0x0 ../ucos2nios2_bsp//libucosii_bsp.a(alt_dev_llist_insert.o)
 .data          0x0000000000026e86        0x0 ../ucos2nios2_bsp//libucosii_bsp.a(alt_do_ctors.o)
 .data          0x0000000000026e86        0x0 ../ucos2nios2_bsp//libucosii_bsp.a(alt_do_dtors.o)
 .data          0x0000000000026e86        0x0 ../ucos2nios2_bsp//libucosii_bsp.a(alt_find_dev.o)
 .data          0x0000000000026e86        0x0 ../ucos2nios2_bsp//libucosii_bsp.a(alt_icache_flush_all.o)
 .data          0x0000000000026e86        0x0 ../ucos2nios2_bsp//libucosii_bsp.a(alt_io_redirect.o)
 .data          0x0000000000026e86        0x0 ../ucos2nios2_bsp//libucosii_bsp.a(alt_irq_register.o)
 .data          0x0000000000026e86        0x0 ../ucos2nios2_bsp//libucosii_bsp.a(alt_irq_vars.o)
 .data          0x0000000000026e86        0x0 ../ucos2nios2_bsp//libucosii_bsp.a(alt_open.o)
 .data          0x0000000000026e86        0x0 ../ucos2nios2_bsp//libucosii_bsp.a(alt_tick.o)
 .data          0x0000000000026e86        0x0 ../ucos2nios2_bsp//libucosii_bsp.a(altera_nios2_gen2_irq.o)
 .data          0x0000000000026e86        0x0 ../ucos2nios2_bsp//libucosii_bsp.a(os_cpu_a.o)
 .data          0x0000000000026e86        0x0 ../ucos2nios2_bsp//libucosii_bsp.a(os_cpu_c.o)
 .data          0x0000000000026e86        0x0 ../ucos2nios2_bsp//libucosii_bsp.a(alt_find_file.o)
 .data          0x0000000000026e86        0x0 ../ucos2nios2_bsp//libucosii_bsp.a(alt_get_fd.o)
 .data          0x0000000000026e86        0x0 ../ucos2nios2_bsp//libucosii_bsp.a(alt_icache_flush.o)
 .data          0x0000000000026e86        0x0 ../ucos2nios2_bsp//libucosii_bsp.a(alt_irq_entry.o)
 .data          0x0000000000026e86        0x0 ../ucos2nios2_bsp//libucosii_bsp.a(alt_irq_handler.o)
 .data          0x0000000000026e86        0x0 ../ucos2nios2_bsp//libucosii_bsp.a(alt_exception_entry.o)
 .data          0x0000000000026e86        0x0 ../ucos2nios2_bsp//libucosii_bsp.a(alt_instruction_exception_entry.o)
 .data          0x0000000000026e86        0x0 /opt/intelFPGA/18.1/nios2eds/bin/gnu/H-x86_64-pc-linux-gnu/bin/../lib/gcc/nios2-elf/5.3.0/../../../../../H-x86_64-pc-linux-gnu/nios2-elf/lib/mhw-mulx/libc.a(lib_a-atexit.o)
 .data          0x0000000000026e86        0x0 /opt/intelFPGA/18.1/nios2eds/bin/gnu/H-x86_64-pc-linux-gnu/bin/../lib/gcc/nios2-elf/5.3.0/../../../../../H-x86_64-pc-linux-gnu/nios2-elf/lib/mhw-mulx/libc.a(lib_a-exit.o)
 .data          0x0000000000026e86        0x0 /opt/intelFPGA/18.1/nios2eds/bin/gnu/H-x86_64-pc-linux-gnu/bin/../lib/gcc/nios2-elf/5.3.0/../../../../../H-x86_64-pc-linux-gnu/nios2-elf/lib/mhw-mulx/libc.a(lib_a-memcmp.o)
 .data          0x0000000000026e86        0x0 /opt/intelFPGA/18.1/nios2eds/bin/gnu/H-x86_64-pc-linux-gnu/bin/../lib/gcc/nios2-elf/5.3.0/../../../../../H-x86_64-pc-linux-gnu/nios2-elf/lib/mhw-mulx/libc.a(lib_a-__atexit.o)
 .data          0x0000000000026e86        0x0 /opt/intelFPGA/18.1/nios2eds/bin/gnu/H-x86_64-pc-linux-gnu/bin/../lib/gcc/nios2-elf/5.3.0/../../../../../H-x86_64-pc-linux-gnu/nios2-elf/lib/mhw-mulx/libc.a(lib_a-__call_atexit.o)
 .data          0x0000000000026e86        0x0 ../ucos2nios2_bsp//libucosii_bsp.a(alt_exit.o)
                0x000000000002ee86                _gp = ABSOLUTE ((. + 0x8000))
                [!provide]                        PROVIDE (gp, _gp)
 *(.rwdata .rwdata.*)
 *(.sdata .sdata.* .gnu.linkonce.s.*)
 *fill*         0x0000000000026e86        0x2 
 .sdata         0x0000000000026e88       0x28 obj/default/pong.o
                0x0000000000026e88                KEY_ptr
                0x0000000000026e8c                SW_ptr
                0x0000000000026e90                LEDR_ptr
                0x0000000000026e94                x1
                0x0000000000026e98                x2
                0x0000000000026e9c                player1_y_0
                0x0000000000026ea0                player1_y_1
                0x0000000000026ea4                player2_y_0
                0x0000000000026ea8                player2_y_1
                0x0000000000026eac                speed
 .sdata         0x0000000000026eb0       0x24 obj/default/vga_stuff.o
                0x0000000000026eb0                vga_pixel_buffer_buffer_reg
                0x0000000000026eb4                vga_pixel_buffer_back_buffer_reg
                0x0000000000026eb8                vga_pixel_buffer_status_reg
                0x0000000000026ebc                LCD_display_ptr
                0x0000000000026ec0                pixel_buffer
                0x0000000000026ec4                vga_screen_front_buffer
                0x0000000000026ec8                vga_screen_back_buffer
                0x0000000000026ecc                JTAG_UART_ptr
                0x0000000000026ed0                character_buffer
 .sdata.__malloc_sbrk_base
                0x0000000000026ed4        0x4 /opt/intelFPGA/18.1/nios2eds/bin/gnu/H-x86_64-pc-linux-gnu/bin/../lib/gcc/nios2-elf/5.3.0/../../../../../H-x86_64-pc-linux-gnu/nios2-elf/lib/mhw-mulx/libc.a(lib_a-mallocr.o)
                0x0000000000026ed4                __malloc_sbrk_base
 .sdata.__malloc_trim_threshold
                0x0000000000026ed8        0x4 /opt/intelFPGA/18.1/nios2eds/bin/gnu/H-x86_64-pc-linux-gnu/bin/../lib/gcc/nios2-elf/5.3.0/../../../../../H-x86_64-pc-linux-gnu/nios2-elf/lib/mhw-mulx/libc.a(lib_a-mallocr.o)
                0x0000000000026ed8                __malloc_trim_threshold
 .sdata._global_impure_ptr
                0x0000000000026edc        0x4 /opt/intelFPGA/18.1/nios2eds/bin/gnu/H-x86_64-pc-linux-gnu/bin/../lib/gcc/nios2-elf/5.3.0/../../../../../H-x86_64-pc-linux-gnu/nios2-elf/lib/mhw-mulx/libc.a(lib_a-impure.o)
                0x0000000000026edc                _global_impure_ptr
 .sdata._impure_ptr
                0x0000000000026ee0        0x4 /opt/intelFPGA/18.1/nios2eds/bin/gnu/H-x86_64-pc-linux-gnu/bin/../lib/gcc/nios2-elf/5.3.0/../../../../../H-x86_64-pc-linux-gnu/nios2-elf/lib/mhw-mulx/libc.a(lib_a-impure.o)
                0x0000000000026ee0                _impure_ptr
 .sdata.__mb_cur_max
                0x0000000000026ee4        0x4 /opt/intelFPGA/18.1/nios2eds/bin/gnu/H-x86_64-pc-linux-gnu/bin/../lib/gcc/nios2-elf/5.3.0/../../../../../H-x86_64-pc-linux-gnu/nios2-elf/lib/mhw-mulx/libc.a(lib_a-locale.o)
                0x0000000000026ee4                __mb_cur_max
 .sdata.__wctomb
                0x0000000000026ee8        0x4 /opt/intelFPGA/18.1/nios2eds/bin/gnu/H-x86_64-pc-linux-gnu/bin/../lib/gcc/nios2-elf/5.3.0/../../../../../H-x86_64-pc-linux-gnu/nios2-elf/lib/mhw-mulx/libc.a(lib_a-wctomb_r.o)
                0x0000000000026ee8                __wctomb
 .sdata         0x0000000000026eec       0x14 ../ucos2nios2_bsp//libucosii_bsp.a(alt_dev.o)
                0x0000000000026eec                alt_fs_list
                0x0000000000026ef4                alt_dev_list
                0x0000000000026efc                alt_max_fd
 .sdata         0x0000000000026f00        0x4 ../ucos2nios2_bsp//libucosii_bsp.a(alt_errno.o)
                0x0000000000026f00                alt_errno
 .sdata         0x0000000000026f04        0x4 ../ucos2nios2_bsp//libucosii_bsp.a(alt_sbrk.o)
 .sdata         0x0000000000026f08        0x4 ../ucos2nios2_bsp//libucosii_bsp.a(alt_env_lock.o)
 .sdata         0x0000000000026f0c        0x4 ../ucos2nios2_bsp//libucosii_bsp.a(alt_malloc_lock.o)
 .sdata         0x0000000000026f10       0x72 ../ucos2nios2_bsp//libucosii_bsp.a(os_dbg.o)
                0x0000000000026f10                OSDebugEn
                0x0000000000026f14                OSEndiannessTest
                0x0000000000026f18                OSEventEn
                0x0000000000026f1a                OSEventMax
                0x0000000000026f1c                OSEventNameSize
                0x0000000000026f1e                OSEventSize
                0x0000000000026f20                OSEventTblSize
                0x0000000000026f22                OSEventMultiEn
                0x0000000000026f24                OSFlagEn
                0x0000000000026f26                OSFlagGrpSize
                0x0000000000026f28                OSFlagNodeSize
                0x0000000000026f2a                OSFlagWidth
                0x0000000000026f2c                OSFlagMax
                0x0000000000026f2e                OSFlagNameSize
                0x0000000000026f30                OSLowestPrio
                0x0000000000026f32                OSMboxEn
                0x0000000000026f34                OSMemEn
                0x0000000000026f36                OSMemMax
                0x0000000000026f38                OSMemNameSize
                0x0000000000026f3a                OSMemSize
                0x0000000000026f3c                OSMemTblSize
                0x0000000000026f3e                OSMutexEn
                0x0000000000026f40                OSPtrSize
                0x0000000000026f42                OSQEn
                0x0000000000026f44                OSQMax
                0x0000000000026f46                OSQSize
                0x0000000000026f48                OSRdyTblSize
                0x0000000000026f4a                OSSemEn
                0x0000000000026f4c                OSStkWidth
                0x0000000000026f4e                OSTaskCreateEn
                0x0000000000026f50                OSTaskCreateExtEn
                0x0000000000026f52                OSTaskDelEn
                0x0000000000026f54                OSTaskIdleStkSize
                0x0000000000026f56                OSTaskProfileEn
                0x0000000000026f58                OSTaskMax
                0x0000000000026f5a                OSTaskNameSize
                0x0000000000026f5c                OSTaskStatEn
                0x0000000000026f5e                OSTaskStatStkSize
                0x0000000000026f60                OSTaskStatStkChkEn
                0x0000000000026f62                OSTaskSwHookEn
                0x0000000000026f64                OSTCBPrioTblMax
                0x0000000000026f66                OSTCBSize
                0x0000000000026f68                OSTicksPerSec
                0x0000000000026f6a                OSTimeTickHookEn
                0x0000000000026f6c                OSVersionNbr
                0x0000000000026f6e                OSTmrEn
                0x0000000000026f70                OSTmrCfgMax
                0x0000000000026f72                OSTmrCfgNameSize
                0x0000000000026f74                OSTmrCfgWheelSize
                0x0000000000026f76                OSTmrCfgTicksPerSec
                0x0000000000026f78                OSTmrSize
                0x0000000000026f7a                OSTmrTblSize
                0x0000000000026f7c                OSTmrWheelSize
                0x0000000000026f7e                OSTmrWheelTblSize
                0x0000000000026f80                OSDataSize
 *fill*         0x0000000000026f82        0x2 
 .sdata         0x0000000000026f84        0x4 ../ucos2nios2_bsp//libucosii_bsp.a(alt_irq_vars.o)
                0x0000000000026f84                alt_priority_mask
 .sdata         0x0000000000026f88        0x8 ../ucos2nios2_bsp//libucosii_bsp.a(alt_tick.o)
                0x0000000000026f88                alt_alarm_list
 *(.sdata2 .sdata2.* .gnu.linkonce.s2.*)
                0x0000000000026f90                . = ALIGN (0x4)
                0x0000000000026f90                _edata = ABSOLUTE (.)
                [!provide]                        PROVIDE (edata, ABSOLUTE (.))
                0x0000000000026f90                PROVIDE (__ram_rwdata_end, ABSOLUTE (.))
                0x0000000000026f90                PROVIDE (__flash_rwdata_start, LOADADDR (.rwdata))

.bss            0x0000000000029148    0x6f450
                0x0000000000029148                __bss_start = ABSOLUTE (.)
                [!provide]                        PROVIDE (__sbss_start, ABSOLUTE (.))
                [!provide]                        PROVIDE (___sbss_start, ABSOLUTE (.))
 *(.dynsbss)
 *(.sbss .sbss.* .gnu.linkonce.sb.*)
 .sbss          0x0000000000029148        0x4 obj/default/pong.o
 .sbss          0x000000000002914c       0x30 obj/default/pong.o
                0x000000000002914c                GameSpeedMbox
                0x0000000000029150                keyboard
                0x0000000000029154                Score2Mbox
                0x0000000000029158                audio_dev
                0x000000000002915c                gameFlag
                0x0000000000029160                SemBallSpeed
                0x0000000000029164                decode_mode
                0x0000000000029168                Score1Mbox
                0x000000000002916c                ascii
                0x000000000002916d                buf
                0x0000000000029170                GameStatus
                0x0000000000029174                sd_card
                0x0000000000029178                inputStr
 .sbss.__malloc_max_total_mem
                0x000000000002917c        0x4 /opt/intelFPGA/18.1/nios2eds/bin/gnu/H-x86_64-pc-linux-gnu/bin/../lib/gcc/nios2-elf/5.3.0/../../../../../H-x86_64-pc-linux-gnu/nios2-elf/lib/mhw-mulx/libc.a(lib_a-mallocr.o)
                0x000000000002917c                __malloc_max_total_mem
 .sbss.__malloc_max_sbrked_mem
                0x0000000000029180        0x4 /opt/intelFPGA/18.1/nios2eds/bin/gnu/H-x86_64-pc-linux-gnu/bin/../lib/gcc/nios2-elf/5.3.0/../../../../../H-x86_64-pc-linux-gnu/nios2-elf/lib/mhw-mulx/libc.a(lib_a-mallocr.o)
                0x0000000000029180                __malloc_max_sbrked_mem
 .sbss.__malloc_top_pad
                0x0000000000029184        0x4 /opt/intelFPGA/18.1/nios2eds/bin/gnu/H-x86_64-pc-linux-gnu/bin/../lib/gcc/nios2-elf/5.3.0/../../../../../H-x86_64-pc-linux-gnu/nios2-elf/lib/mhw-mulx/libc.a(lib_a-mallocr.o)
                0x0000000000029184                __malloc_top_pad
 .sbss          0x0000000000029188        0x4 /opt/intelFPGA/18.1/nios2eds/bin/gnu/H-x86_64-pc-linux-gnu/bin/../lib/gcc/nios2-elf/5.3.0/../../../../../H-x86_64-pc-linux-gnu/nios2-elf/lib/mhw-mulx/libc.a(lib_a-int_errno.o)
                0x0000000000029188                errno
 .sbss._PathLocale
                0x000000000002918c        0x4 /opt/intelFPGA/18.1/nios2eds/bin/gnu/H-x86_64-pc-linux-gnu/bin/../lib/gcc/nios2-elf/5.3.0/../../../../../H-x86_64-pc-linux-gnu/nios2-elf/lib/mhw-mulx/libc.a(lib_a-locale.o)
                0x000000000002918c                _PathLocale
 .sbss.__mlocale_changed
                0x0000000000029190        0x4 /opt/intelFPGA/18.1/nios2eds/bin/gnu/H-x86_64-pc-linux-gnu/bin/../lib/gcc/nios2-elf/5.3.0/../../../../../H-x86_64-pc-linux-gnu/nios2-elf/lib/mhw-mulx/libc.a(lib_a-locale.o)
                0x0000000000029190                __mlocale_changed
 .sbss.__nlocale_changed
                0x0000000000029194        0x4 /opt/intelFPGA/18.1/nios2eds/bin/gnu/H-x86_64-pc-linux-gnu/bin/../lib/gcc/nios2-elf/5.3.0/../../../../../H-x86_64-pc-linux-gnu/nios2-elf/lib/mhw-mulx/libc.a(lib_a-locale.o)
                0x0000000000029194                __nlocale_changed
 .sbss          0x0000000000029198        0x4 ../ucos2nios2_bsp//libucosii_bsp.a(alt_dev.o)
                0x0000000000029198                alt_fd_list_lock
 .sbss          0x000000000002919c        0xc ../ucos2nios2_bsp//libucosii_bsp.a(alt_main.o)
                0x000000000002919c                alt_argc
                0x00000000000291a0                alt_argv
                0x00000000000291a4                alt_envp
 .sbss          0x00000000000291a8        0x8 ../ucos2nios2_bsp//libucosii_bsp.a(alt_env_lock.o)
                0x00000000000291ac                alt_envsem
 .sbss          0x00000000000291b0        0x8 ../ucos2nios2_bsp//libucosii_bsp.a(alt_malloc_lock.o)
                0x00000000000291b4                alt_heapsem
 .sbss          0x00000000000291b8       0x50 ../ucos2nios2_bsp//libucosii_bsp.a(os_core.o)
                0x00000000000291b8                OSLockNesting
                0x00000000000291b9                OSRunning
                0x00000000000291bc                OSIdleCtr
                0x00000000000291c0                OSPrioHighRdy
                0x00000000000291c1                OSPrioCur
                0x00000000000291c4                OSTCBList
                0x00000000000291c8                OSTickStepState
                0x00000000000291cc                OSCtxSwCtr
                0x00000000000291d0                OSIdleCtrMax
                0x00000000000291d4                OSTCBFreeList
                0x00000000000291d8                OSCPUUsage
                0x00000000000291d9                OSTaskCtr
                0x00000000000291dc                OSMemFreeList
                0x00000000000291e0                OSTCBHighRdy
                0x00000000000291e4                OSQFreeList
                0x00000000000291e8                OSRdyGrp
                0x00000000000291e9                OSRdyTbl
                0x00000000000291ec                OSEventFreeList
                0x00000000000291f0                OSIntNesting
                0x00000000000291f4                OSTCBCur
                0x00000000000291f8                OSTime
                0x00000000000291fc                OSFlagFreeList
                0x0000000000029200                OSStatRdy
                0x0000000000029204                OSIdleCtrRun
 .sbss          0x0000000000029208       0x34 ../ucos2nios2_bsp//libucosii_bsp.a(Altera_UP_SD_Card_Avalon_Interface.o)
                0x0000000000029208                initialized
                0x000000000002920c                is_sd_card_formated_as_FAT16
                0x0000000000029210                aux_status_register
                0x0000000000029214                status_register
                0x0000000000029218                CSD_register_w0
                0x000000000002921c                command_register
                0x0000000000029220                command_argument_register
                0x0000000000029224                buffer_memory
                0x0000000000029228                fat_partition_offset_in_512_byte_sectors
                0x000000000002922c                fat_partition_size_in_512_byte_sectors
                0x0000000000029230                device_pointer
                0x0000000000029234                current_sector_modified
                0x0000000000029238                current_sector_index
 .sbss          0x000000000002923c        0x4 ../ucos2nios2_bsp//libucosii_bsp.a(altera_up_ps2_keyboard.o)
 .sbss          0x0000000000029240        0x4 ../ucos2nios2_bsp//libucosii_bsp.a(alt_irq_vars.o)
                0x0000000000029240                alt_irq_active
 .sbss          0x0000000000029244        0x8 ../ucos2nios2_bsp//libucosii_bsp.a(alt_tick.o)
                0x0000000000029244                _alt_tick_rate
                0x0000000000029248                _alt_nticks
 .sbss          0x000000000002924c        0x4 ../ucos2nios2_bsp//libucosii_bsp.a(alt_instruction_exception_entry.o)
                0x000000000002924c                alt_instruction_exception_handler
 *(.sbss2 .sbss2.* .gnu.linkonce.sb2.*)
 *(.scommon)
                [!provide]                        PROVIDE (__sbss_end, ABSOLUTE (.))
                [!provide]                        PROVIDE (___sbss_end, ABSOLUTE (.))
 *(.dynbss)
 *(.bss .bss.* .gnu.linkonce.b.*)
 .bss           0x0000000000029250        0x0 ../ucos2nios2_bsp//obj/HAL/src/crt0.o
 .bss           0x0000000000029250        0x0 obj/default/pong.o
 .bss           0x0000000000029250        0x0 obj/default/vga_stuff.o
 .bss           0x0000000000029250        0x0 /opt/intelFPGA/18.1/nios2eds/bin/gnu/H-x86_64-pc-linux-gnu/bin/../lib/gcc/nios2-elf/5.3.0/../../../../../H-x86_64-pc-linux-gnu/nios2-elf/lib/mhw-mulx/libc.a(lib_a-malloc.o)
 .bss           0x0000000000029250        0x0 /opt/intelFPGA/18.1/nios2eds/bin/gnu/H-x86_64-pc-linux-gnu/bin/../lib/gcc/nios2-elf/5.3.0/../../../../../H-x86_64-pc-linux-gnu/nios2-elf/lib/mhw-mulx/libc.a(lib_a-mallocr.o)
 .bss.__malloc_current_mallinfo
                0x0000000000029250       0x28 /opt/intelFPGA/18.1/nios2eds/bin/gnu/H-x86_64-pc-linux-gnu/bin/../lib/gcc/nios2-elf/5.3.0/../../../../../H-x86_64-pc-linux-gnu/nios2-elf/lib/mhw-mulx/libc.a(lib_a-mallocr.o)
                0x0000000000029250                __malloc_current_mallinfo
 .bss           0x0000000000029278        0x0 /opt/intelFPGA/18.1/nios2eds/bin/gnu/H-x86_64-pc-linux-gnu/bin/../lib/gcc/nios2-elf/5.3.0/../../../../../H-x86_64-pc-linux-gnu/nios2-elf/lib/mhw-mulx/libc.a(lib_a-printf.o)
 .bss           0x0000000000029278        0x0 /opt/intelFPGA/18.1/nios2eds/bin/gnu/H-x86_64-pc-linux-gnu/bin/../lib/gcc/nios2-elf/5.3.0/../../../../../H-x86_64-pc-linux-gnu/nios2-elf/lib/mhw-mulx/libc.a(lib_a-puts.o)
 .bss           0x0000000000029278        0x0 /opt/intelFPGA/18.1/nios2eds/bin/gnu/H-x86_64-pc-linux-gnu/bin/../lib/gcc/nios2-elf/5.3.0/../../../../../H-x86_64-pc-linux-gnu/nios2-elf/lib/mhw-mulx/libc.a(lib_a-sbrkr.o)
 .bss           0x0000000000029278        0x0 /opt/intelFPGA/18.1/nios2eds/bin/gnu/H-x86_64-pc-linux-gnu/bin/../lib/gcc/nios2-elf/5.3.0/../../../../../H-x86_64-pc-linux-gnu/nios2-elf/lib/mhw-mulx/libc.a(lib_a-snprintf.o)
 .bss           0x0000000000029278        0x0 /opt/intelFPGA/18.1/nios2eds/bin/gnu/H-x86_64-pc-linux-gnu/bin/../lib/gcc/nios2-elf/5.3.0/../../../../../H-x86_64-pc-linux-gnu/nios2-elf/lib/mhw-mulx/libc.a(lib_a-strcat.o)
 .bss           0x0000000000029278        0x0 /opt/intelFPGA/18.1/nios2eds/bin/gnu/H-x86_64-pc-linux-gnu/bin/../lib/gcc/nios2-elf/5.3.0/../../../../../H-x86_64-pc-linux-gnu/nios2-elf/lib/mhw-mulx/libc.a(lib_a-strcpy.o)
 .bss           0x0000000000029278        0x0 /opt/intelFPGA/18.1/nios2eds/bin/gnu/H-x86_64-pc-linux-gnu/bin/../lib/gcc/nios2-elf/5.3.0/../../../../../H-x86_64-pc-linux-gnu/nios2-elf/lib/mhw-mulx/libc.a(lib_a-strlen.o)
 .bss           0x0000000000029278        0x0 /opt/intelFPGA/18.1/nios2eds/bin/gnu/H-x86_64-pc-linux-gnu/bin/../lib/gcc/nios2-elf/5.3.0/../../../../../H-x86_64-pc-linux-gnu/nios2-elf/lib/mhw-mulx/libc.a(lib_a-svfprintf.o)
 .bss           0x0000000000029278        0x0 /opt/intelFPGA/18.1/nios2eds/bin/gnu/H-x86_64-pc-linux-gnu/bin/../lib/gcc/nios2-elf/5.3.0/../../../../../H-x86_64-pc-linux-gnu/nios2-elf/lib/mhw-mulx/libc.a(lib_a-vfprintf.o)
 .bss           0x0000000000029278        0x0 /opt/intelFPGA/18.1/nios2eds/bin/gnu/H-x86_64-pc-linux-gnu/bin/../lib/gcc/nios2-elf/5.3.0/../../../../../H-x86_64-pc-linux-gnu/nios2-elf/lib/mhw-mulx/libc.a(lib_a-wsetup.o)
 .bss           0x0000000000029278        0x0 /opt/intelFPGA/18.1/nios2eds/bin/gnu/H-x86_64-pc-linux-gnu/bin/../lib/gcc/nios2-elf/5.3.0/../../../../../H-x86_64-pc-linux-gnu/nios2-elf/lib/mhw-mulx/libc.a(lib_a-dtoa.o)
 .bss           0x0000000000029278        0x0 /opt/intelFPGA/18.1/nios2eds/bin/gnu/H-x86_64-pc-linux-gnu/bin/../lib/gcc/nios2-elf/5.3.0/../../../../../H-x86_64-pc-linux-gnu/nios2-elf/lib/mhw-mulx/libc.a(lib_a-fflush.o)
 .bss           0x0000000000029278        0x0 /opt/intelFPGA/18.1/nios2eds/bin/gnu/H-x86_64-pc-linux-gnu/bin/../lib/gcc/nios2-elf/5.3.0/../../../../../H-x86_64-pc-linux-gnu/nios2-elf/lib/mhw-mulx/libc.a(lib_a-findfp.o)
 .bss           0x0000000000029278        0x0 /opt/intelFPGA/18.1/nios2eds/bin/gnu/H-x86_64-pc-linux-gnu/bin/../lib/gcc/nios2-elf/5.3.0/../../../../../H-x86_64-pc-linux-gnu/nios2-elf/lib/mhw-mulx/libc.a(lib_a-freer.o)
 .bss           0x0000000000029278        0x0 /opt/intelFPGA/18.1/nios2eds/bin/gnu/H-x86_64-pc-linux-gnu/bin/../lib/gcc/nios2-elf/5.3.0/../../../../../H-x86_64-pc-linux-gnu/nios2-elf/lib/mhw-mulx/libc.a(lib_a-fvwrite.o)
 .bss           0x0000000000029278        0x0 /opt/intelFPGA/18.1/nios2eds/bin/gnu/H-x86_64-pc-linux-gnu/bin/../lib/gcc/nios2-elf/5.3.0/../../../../../H-x86_64-pc-linux-gnu/nios2-elf/lib/mhw-mulx/libc.a(lib_a-fwalk.o)
 .bss           0x0000000000029278        0x0 /opt/intelFPGA/18.1/nios2eds/bin/gnu/H-x86_64-pc-linux-gnu/bin/../lib/gcc/nios2-elf/5.3.0/../../../../../H-x86_64-pc-linux-gnu/nios2-elf/lib/mhw-mulx/libc.a(lib_a-impure.o)
 .bss           0x0000000000029278        0x0 /opt/intelFPGA/18.1/nios2eds/bin/gnu/H-x86_64-pc-linux-gnu/bin/../lib/gcc/nios2-elf/5.3.0/../../../../../H-x86_64-pc-linux-gnu/nios2-elf/lib/mhw-mulx/libc.a(lib_a-int_errno.o)
 .bss           0x0000000000029278        0x0 /opt/intelFPGA/18.1/nios2eds/bin/gnu/H-x86_64-pc-linux-gnu/bin/../lib/gcc/nios2-elf/5.3.0/../../../../../H-x86_64-pc-linux-gnu/nios2-elf/lib/mhw-mulx/libc.a(lib_a-locale.o)
 .bss           0x0000000000029278        0x0 /opt/intelFPGA/18.1/nios2eds/bin/gnu/H-x86_64-pc-linux-gnu/bin/../lib/gcc/nios2-elf/5.3.0/../../../../../H-x86_64-pc-linux-gnu/nios2-elf/lib/mhw-mulx/libc.a(lib_a-makebuf.o)
 .bss           0x0000000000029278        0x0 /opt/intelFPGA/18.1/nios2eds/bin/gnu/H-x86_64-pc-linux-gnu/bin/../lib/gcc/nios2-elf/5.3.0/../../../../../H-x86_64-pc-linux-gnu/nios2-elf/lib/mhw-mulx/libc.a(lib_a-memchr.o)
 .bss           0x0000000000029278        0x0 /opt/intelFPGA/18.1/nios2eds/bin/gnu/H-x86_64-pc-linux-gnu/bin/../lib/gcc/nios2-elf/5.3.0/../../../../../H-x86_64-pc-linux-gnu/nios2-elf/lib/mhw-mulx/libc.a(lib_a-memcpy.o)
 .bss           0x0000000000029278        0x0 /opt/intelFPGA/18.1/nios2eds/bin/gnu/H-x86_64-pc-linux-gnu/bin/../lib/gcc/nios2-elf/5.3.0/../../../../../H-x86_64-pc-linux-gnu/nios2-elf/lib/mhw-mulx/libc.a(lib_a-memmove.o)
 .bss           0x0000000000029278        0x0 /opt/intelFPGA/18.1/nios2eds/bin/gnu/H-x86_64-pc-linux-gnu/bin/../lib/gcc/nios2-elf/5.3.0/../../../../../H-x86_64-pc-linux-gnu/nios2-elf/lib/mhw-mulx/libc.a(lib_a-memset.o)
 .bss           0x0000000000029278        0x0 /opt/intelFPGA/18.1/nios2eds/bin/gnu/H-x86_64-pc-linux-gnu/bin/../lib/gcc/nios2-elf/5.3.0/../../../../../H-x86_64-pc-linux-gnu/nios2-elf/lib/mhw-mulx/libc.a(lib_a-mprec.o)
 .bss           0x0000000000029278        0x0 /opt/intelFPGA/18.1/nios2eds/bin/gnu/H-x86_64-pc-linux-gnu/bin/../lib/gcc/nios2-elf/5.3.0/../../../../../H-x86_64-pc-linux-gnu/nios2-elf/lib/mhw-mulx/libc.a(lib_a-reallocr.o)
 .bss           0x0000000000029278        0x0 /opt/intelFPGA/18.1/nios2eds/bin/gnu/H-x86_64-pc-linux-gnu/bin/../lib/gcc/nios2-elf/5.3.0/../../../../../H-x86_64-pc-linux-gnu/nios2-elf/lib/mhw-mulx/libc.a(lib_a-s_fpclassify.o)
 .bss           0x0000000000029278        0x0 /opt/intelFPGA/18.1/nios2eds/bin/gnu/H-x86_64-pc-linux-gnu/bin/../lib/gcc/nios2-elf/5.3.0/../../../../../H-x86_64-pc-linux-gnu/nios2-elf/lib/mhw-mulx/libc.a(lib_a-stdio.o)
 .bss           0x0000000000029278        0x0 /opt/intelFPGA/18.1/nios2eds/bin/gnu/H-x86_64-pc-linux-gnu/bin/../lib/gcc/nios2-elf/5.3.0/../../../../../H-x86_64-pc-linux-gnu/nios2-elf/lib/mhw-mulx/libc.a(lib_a-strcmp.o)
 .bss           0x0000000000029278        0x0 /opt/intelFPGA/18.1/nios2eds/bin/gnu/H-x86_64-pc-linux-gnu/bin/../lib/gcc/nios2-elf/5.3.0/../../../../../H-x86_64-pc-linux-gnu/nios2-elf/lib/mhw-mulx/libc.a(lib_a-svfiprintf.o)
 .bss           0x0000000000029278        0x0 /opt/intelFPGA/18.1/nios2eds/bin/gnu/H-x86_64-pc-linux-gnu/bin/../lib/gcc/nios2-elf/5.3.0/../../../../../H-x86_64-pc-linux-gnu/nios2-elf/lib/mhw-mulx/libc.a(lib_a-vfiprintf.o)
 .bss           0x0000000000029278        0x0 /opt/intelFPGA/18.1/nios2eds/bin/gnu/H-x86_64-pc-linux-gnu/bin/../lib/gcc/nios2-elf/5.3.0/../../../../../H-x86_64-pc-linux-gnu/nios2-elf/lib/mhw-mulx/libc.a(lib_a-writer.o)
 .bss           0x0000000000029278        0x0 /opt/intelFPGA/18.1/nios2eds/bin/gnu/H-x86_64-pc-linux-gnu/bin/../lib/gcc/nios2-elf/5.3.0/../../../../../H-x86_64-pc-linux-gnu/nios2-elf/lib/mhw-mulx/libc.a(closer.o)
 .bss           0x0000000000029278        0x0 /opt/intelFPGA/18.1/nios2eds/bin/gnu/H-x86_64-pc-linux-gnu/bin/../lib/gcc/nios2-elf/5.3.0/../../../../../H-x86_64-pc-linux-gnu/nios2-elf/lib/mhw-mulx/libc.a(lib_a-callocr.o)
 .bss           0x0000000000029278        0x0 /opt/intelFPGA/18.1/nios2eds/bin/gnu/H-x86_64-pc-linux-gnu/bin/../lib/gcc/nios2-elf/5.3.0/../../../../../H-x86_64-pc-linux-gnu/nios2-elf/lib/mhw-mulx/libc.a(lib_a-fclose.o)
 .bss           0x0000000000029278        0x0 /opt/intelFPGA/18.1/nios2eds/bin/gnu/H-x86_64-pc-linux-gnu/bin/../lib/gcc/nios2-elf/5.3.0/../../../../../H-x86_64-pc-linux-gnu/nios2-elf/lib/mhw-mulx/libc.a(lib_a-fputwc.o)
 .bss           0x0000000000029278        0x0 /opt/intelFPGA/18.1/nios2eds/bin/gnu/H-x86_64-pc-linux-gnu/bin/../lib/gcc/nios2-elf/5.3.0/../../../../../H-x86_64-pc-linux-gnu/nios2-elf/lib/mhw-mulx/libc.a(lib_a-fstatr.o)
 .bss           0x0000000000029278        0x0 /opt/intelFPGA/18.1/nios2eds/bin/gnu/H-x86_64-pc-linux-gnu/bin/../lib/gcc/nios2-elf/5.3.0/../../../../../H-x86_64-pc-linux-gnu/nios2-elf/lib/mhw-mulx/libc.a(lib_a-isattyr.o)
 .bss           0x0000000000029278        0x0 /opt/intelFPGA/18.1/nios2eds/bin/gnu/H-x86_64-pc-linux-gnu/bin/../lib/gcc/nios2-elf/5.3.0/../../../../../H-x86_64-pc-linux-gnu/nios2-elf/lib/mhw-mulx/libc.a(lib_a-lseekr.o)
 .bss           0x0000000000029278        0x0 /opt/intelFPGA/18.1/nios2eds/bin/gnu/H-x86_64-pc-linux-gnu/bin/../lib/gcc/nios2-elf/5.3.0/../../../../../H-x86_64-pc-linux-gnu/nios2-elf/lib/mhw-mulx/libc.a(lib_a-readr.o)
 .bss           0x0000000000029278        0x0 /opt/intelFPGA/18.1/nios2eds/bin/gnu/H-x86_64-pc-linux-gnu/bin/../lib/gcc/nios2-elf/5.3.0/../../../../../H-x86_64-pc-linux-gnu/nios2-elf/lib/mhw-mulx/libc.a(lib_a-wbuf.o)
 .bss           0x0000000000029278        0x0 /opt/intelFPGA/18.1/nios2eds/bin/gnu/H-x86_64-pc-linux-gnu/bin/../lib/gcc/nios2-elf/5.3.0/../../../../../H-x86_64-pc-linux-gnu/nios2-elf/lib/mhw-mulx/libc.a(lib_a-wcrtomb.o)
 .bss           0x0000000000029278        0x0 /opt/intelFPGA/18.1/nios2eds/bin/gnu/H-x86_64-pc-linux-gnu/bin/../lib/gcc/nios2-elf/5.3.0/../../../../../H-x86_64-pc-linux-gnu/nios2-elf/lib/mhw-mulx/libc.a(lib_a-wctomb_r.o)
 .bss           0x0000000000029278        0x0 /opt/intelFPGA/18.1/nios2eds/bin/gnu/H-x86_64-pc-linux-gnu/bin/../lib/gcc/nios2-elf/5.3.0/mhw-mulx/libgcc.a(_udivdi3.o)
 .bss           0x0000000000029278        0x0 /opt/intelFPGA/18.1/nios2eds/bin/gnu/H-x86_64-pc-linux-gnu/bin/../lib/gcc/nios2-elf/5.3.0/mhw-mulx/libgcc.a(_umoddi3.o)
 .bss           0x0000000000029278        0x0 /opt/intelFPGA/18.1/nios2eds/bin/gnu/H-x86_64-pc-linux-gnu/bin/../lib/gcc/nios2-elf/5.3.0/mhw-mulx/libgcc.a(lib2-divmod.o)
 .bss           0x0000000000029278        0x0 /opt/intelFPGA/18.1/nios2eds/bin/gnu/H-x86_64-pc-linux-gnu/bin/../lib/gcc/nios2-elf/5.3.0/mhw-mulx/libgcc.a(adddf3.o)
 .bss           0x0000000000029278        0x0 /opt/intelFPGA/18.1/nios2eds/bin/gnu/H-x86_64-pc-linux-gnu/bin/../lib/gcc/nios2-elf/5.3.0/mhw-mulx/libgcc.a(divdf3.o)
 .bss           0x0000000000029278        0x0 /opt/intelFPGA/18.1/nios2eds/bin/gnu/H-x86_64-pc-linux-gnu/bin/../lib/gcc/nios2-elf/5.3.0/mhw-mulx/libgcc.a(eqdf2.o)
 .bss           0x0000000000029278        0x0 /opt/intelFPGA/18.1/nios2eds/bin/gnu/H-x86_64-pc-linux-gnu/bin/../lib/gcc/nios2-elf/5.3.0/mhw-mulx/libgcc.a(gedf2.o)
 .bss           0x0000000000029278        0x0 /opt/intelFPGA/18.1/nios2eds/bin/gnu/H-x86_64-pc-linux-gnu/bin/../lib/gcc/nios2-elf/5.3.0/mhw-mulx/libgcc.a(ledf2.o)
 .bss           0x0000000000029278        0x0 /opt/intelFPGA/18.1/nios2eds/bin/gnu/H-x86_64-pc-linux-gnu/bin/../lib/gcc/nios2-elf/5.3.0/mhw-mulx/libgcc.a(muldf3.o)
 .bss           0x0000000000029278        0x0 /opt/intelFPGA/18.1/nios2eds/bin/gnu/H-x86_64-pc-linux-gnu/bin/../lib/gcc/nios2-elf/5.3.0/mhw-mulx/libgcc.a(subdf3.o)
 .bss           0x0000000000029278        0x0 /opt/intelFPGA/18.1/nios2eds/bin/gnu/H-x86_64-pc-linux-gnu/bin/../lib/gcc/nios2-elf/5.3.0/mhw-mulx/libgcc.a(fixdfsi.o)
 .bss           0x0000000000029278        0x0 /opt/intelFPGA/18.1/nios2eds/bin/gnu/H-x86_64-pc-linux-gnu/bin/../lib/gcc/nios2-elf/5.3.0/mhw-mulx/libgcc.a(floatsidf.o)
 .bss           0x0000000000029278        0x0 /opt/intelFPGA/18.1/nios2eds/bin/gnu/H-x86_64-pc-linux-gnu/bin/../lib/gcc/nios2-elf/5.3.0/mhw-mulx/libgcc.a(floatunsidf.o)
 .bss           0x0000000000029278        0x0 /opt/intelFPGA/18.1/nios2eds/bin/gnu/H-x86_64-pc-linux-gnu/bin/../lib/gcc/nios2-elf/5.3.0/mhw-mulx/libgcc.a(_clz.o)
 .bss           0x0000000000029278        0x0 /opt/intelFPGA/18.1/nios2eds/bin/gnu/H-x86_64-pc-linux-gnu/bin/../lib/gcc/nios2-elf/5.3.0/mhw-mulx/libgcc.a(_clzsi2.o)
 .bss           0x0000000000029278        0x0 ../ucos2nios2_bsp//libucosii_bsp.a(alt_close.o)
 .bss           0x0000000000029278        0x0 ../ucos2nios2_bsp//libucosii_bsp.a(alt_dev.o)
 .bss           0x0000000000029278        0x0 ../ucos2nios2_bsp//libucosii_bsp.a(alt_errno.o)
 .bss           0x0000000000029278        0x0 ../ucos2nios2_bsp//libucosii_bsp.a(alt_fstat.o)
 .bss           0x0000000000029278        0x0 ../ucos2nios2_bsp//libucosii_bsp.a(alt_isatty.o)
 .bss           0x0000000000029278        0x0 ../ucos2nios2_bsp//libucosii_bsp.a(alt_load.o)
 .bss           0x0000000000029278        0x0 ../ucos2nios2_bsp//libucosii_bsp.a(alt_lseek.o)
 .bss           0x0000000000029278        0x0 ../ucos2nios2_bsp//libucosii_bsp.a(alt_main.o)
 .bss           0x0000000000029278        0x0 ../ucos2nios2_bsp//libucosii_bsp.a(alt_read.o)
 .bss           0x0000000000029278        0x0 ../ucos2nios2_bsp//libucosii_bsp.a(alt_release_fd.o)
 .bss           0x0000000000029278        0x0 ../ucos2nios2_bsp//libucosii_bsp.a(alt_sbrk.o)
 .bss           0x0000000000029278        0x0 ../ucos2nios2_bsp//libucosii_bsp.a(alt_write.o)
 .bss           0x0000000000029278        0x0 ../ucos2nios2_bsp//libucosii_bsp.a(alt_env_lock.o)
 .bss           0x0000000000029278        0x0 ../ucos2nios2_bsp//libucosii_bsp.a(alt_malloc_lock.o)
 .bss           0x0000000000029278        0x0 ../ucos2nios2_bsp//libucosii_bsp.a(os_core.o)
 .bss           0x0000000000029278        0x0 ../ucos2nios2_bsp//libucosii_bsp.a(os_dbg.o)
 .bss           0x0000000000029278        0x0 ../ucos2nios2_bsp//libucosii_bsp.a(os_flag.o)
 .bss           0x0000000000029278        0x0 ../ucos2nios2_bsp//libucosii_bsp.a(os_mbox.o)
 .bss           0x0000000000029278        0x0 ../ucos2nios2_bsp//libucosii_bsp.a(os_mem.o)
 .bss           0x0000000000029278        0x0 ../ucos2nios2_bsp//libucosii_bsp.a(os_q.o)
 .bss           0x0000000000029278        0x0 ../ucos2nios2_bsp//libucosii_bsp.a(os_sem.o)
 .bss           0x0000000000029278        0x0 ../ucos2nios2_bsp//libucosii_bsp.a(os_task.o)
 .bss           0x0000000000029278        0x0 ../ucos2nios2_bsp//libucosii_bsp.a(os_time.o)
 .bss           0x0000000000029278        0x0 ../ucos2nios2_bsp//libucosii_bsp.a(alt_sys_init.o)
 .bss           0x0000000000029278        0x0 ../ucos2nios2_bsp//libucosii_bsp.a(Altera_UP_SD_Card_Avalon_Interface.o)
 .bss           0x0000000000029278        0x0 ../ucos2nios2_bsp//libucosii_bsp.a(altera_avalon_jtag_uart_fd.o)
 .bss           0x0000000000029278        0x0 ../ucos2nios2_bsp//libucosii_bsp.a(altera_avalon_jtag_uart_init.o)
 .bss           0x0000000000029278        0x0 ../ucos2nios2_bsp//libucosii_bsp.a(altera_avalon_jtag_uart_ioctl.o)
 .bss           0x0000000000029278        0x0 ../ucos2nios2_bsp//libucosii_bsp.a(altera_avalon_jtag_uart_read.o)
 .bss           0x0000000000029278        0x0 ../ucos2nios2_bsp//libucosii_bsp.a(altera_avalon_jtag_uart_write.o)
 .bss           0x0000000000029278        0x0 ../ucos2nios2_bsp//libucosii_bsp.a(altera_avalon_timer_sc.o)
 .bss           0x0000000000029278        0x0 ../ucos2nios2_bsp//libucosii_bsp.a(altera_up_avalon_audio.o)
 .bss           0x0000000000029278        0x0 ../ucos2nios2_bsp//libucosii_bsp.a(altera_up_avalon_character_lcd.o)
 .bss           0x0000000000029278        0x0 ../ucos2nios2_bsp//libucosii_bsp.a(altera_up_avalon_irda.o)
 .bss           0x0000000000029278        0x0 ../ucos2nios2_bsp//libucosii_bsp.a(altera_up_avalon_ps2.o)
 .bss           0x0000000000029278        0x0 ../ucos2nios2_bsp//libucosii_bsp.a(altera_up_avalon_rs232.o)
 .bss           0x0000000000029278        0x0 ../ucos2nios2_bsp//libucosii_bsp.a(altera_up_ps2_keyboard.o)
 .bss           0x0000000000029278        0x0 ../ucos2nios2_bsp//libucosii_bsp.a(alt_alarm_start.o)
 .bss           0x0000000000029278        0x0 ../ucos2nios2_bsp//libucosii_bsp.a(alt_dcache_flush_all.o)
 .bss           0x0000000000029278        0x0 ../ucos2nios2_bsp//libucosii_bsp.a(alt_dev_llist_insert.o)
 .bss           0x0000000000029278        0x0 ../ucos2nios2_bsp//libucosii_bsp.a(alt_do_ctors.o)
 .bss           0x0000000000029278        0x0 ../ucos2nios2_bsp//libucosii_bsp.a(alt_do_dtors.o)
 .bss           0x0000000000029278        0x0 ../ucos2nios2_bsp//libucosii_bsp.a(alt_find_dev.o)
 .bss           0x0000000000029278        0x0 ../ucos2nios2_bsp//libucosii_bsp.a(alt_icache_flush_all.o)
 .bss           0x0000000000029278        0x0 ../ucos2nios2_bsp//libucosii_bsp.a(alt_io_redirect.o)
 .bss           0x0000000000029278        0x0 ../ucos2nios2_bsp//libucosii_bsp.a(alt_irq_register.o)
 .bss           0x0000000000029278        0x0 ../ucos2nios2_bsp//libucosii_bsp.a(alt_irq_vars.o)
 .bss           0x0000000000029278        0x0 ../ucos2nios2_bsp//libucosii_bsp.a(alt_open.o)
 .bss           0x0000000000029278        0x0 ../ucos2nios2_bsp//libucosii_bsp.a(alt_tick.o)
 .bss           0x0000000000029278        0x0 ../ucos2nios2_bsp//libucosii_bsp.a(altera_nios2_gen2_irq.o)
 .bss           0x0000000000029278        0x0 ../ucos2nios2_bsp//libucosii_bsp.a(os_cpu_a.o)
 .bss           0x0000000000029278        0x0 ../ucos2nios2_bsp//libucosii_bsp.a(os_cpu_c.o)
 .bss           0x0000000000029278        0x0 ../ucos2nios2_bsp//libucosii_bsp.a(alt_find_file.o)
 .bss           0x0000000000029278        0x0 ../ucos2nios2_bsp//libucosii_bsp.a(alt_get_fd.o)
 .bss           0x0000000000029278        0x0 ../ucos2nios2_bsp//libucosii_bsp.a(alt_icache_flush.o)
 .bss           0x0000000000029278        0x0 ../ucos2nios2_bsp//libucosii_bsp.a(alt_irq_entry.o)
 .bss           0x0000000000029278        0x0 ../ucos2nios2_bsp//libucosii_bsp.a(alt_irq_handler.o)
 .bss           0x0000000000029278        0x0 ../ucos2nios2_bsp//libucosii_bsp.a(alt_exception_entry.o)
 .bss           0x0000000000029278        0x0 ../ucos2nios2_bsp//libucosii_bsp.a(alt_instruction_exception_entry.o)
 .bss           0x0000000000029278        0x0 /opt/intelFPGA/18.1/nios2eds/bin/gnu/H-x86_64-pc-linux-gnu/bin/../lib/gcc/nios2-elf/5.3.0/../../../../../H-x86_64-pc-linux-gnu/nios2-elf/lib/mhw-mulx/libc.a(lib_a-atexit.o)
 .bss           0x0000000000029278        0x0 /opt/intelFPGA/18.1/nios2eds/bin/gnu/H-x86_64-pc-linux-gnu/bin/../lib/gcc/nios2-elf/5.3.0/../../../../../H-x86_64-pc-linux-gnu/nios2-elf/lib/mhw-mulx/libc.a(lib_a-exit.o)
 .bss           0x0000000000029278        0x0 /opt/intelFPGA/18.1/nios2eds/bin/gnu/H-x86_64-pc-linux-gnu/bin/../lib/gcc/nios2-elf/5.3.0/../../../../../H-x86_64-pc-linux-gnu/nios2-elf/lib/mhw-mulx/libc.a(lib_a-memcmp.o)
 .bss           0x0000000000029278        0x0 /opt/intelFPGA/18.1/nios2eds/bin/gnu/H-x86_64-pc-linux-gnu/bin/../lib/gcc/nios2-elf/5.3.0/../../../../../H-x86_64-pc-linux-gnu/nios2-elf/lib/mhw-mulx/libc.a(lib_a-__atexit.o)
 .bss           0x0000000000029278        0x0 /opt/intelFPGA/18.1/nios2eds/bin/gnu/H-x86_64-pc-linux-gnu/bin/../lib/gcc/nios2-elf/5.3.0/../../../../../H-x86_64-pc-linux-gnu/nios2-elf/lib/mhw-mulx/libc.a(lib_a-__call_atexit.o)
 .bss           0x0000000000029278        0x0 ../ucos2nios2_bsp//libucosii_bsp.a(alt_exit.o)
 *(COMMON)
 COMMON         0x0000000000029278    0x6ba94 obj/default/pong.o
                0x0000000000029278                task1_stk
                0x000000000002b278                paddle_stk
                0x000000000002d278                r_buf
                0x000000000005dfb8                task2_stk
                0x000000000005ffb8                ball
                0x000000000005ffcc                l_buf
                0x0000000000090d0c                ball_stk
                0x0000000000092d0c                score_stk
 COMMON         0x0000000000094d0c     0x3224 ../ucos2nios2_bsp//libucosii_bsp.a(os_core.o)
                0x0000000000094d0c                OSFlagTbl
                0x000000000009507c                OSMemTbl
                0x0000000000095cac                OSTaskStatStk
                0x00000000000964ac                OSQTbl
                0x000000000009668c                OSTaskIdleStk
                0x0000000000096e8c                OSEventTbl
                0x00000000000979cc                OSTCBTbl
                0x0000000000097edc                OSTCBPrioTbl
 COMMON         0x0000000000097f30      0x568 ../ucos2nios2_bsp//libucosii_bsp.a(Altera_UP_SD_Card_Avalon_Interface.o)
                0x0000000000097f30                search_data
                0x0000000000097f44                boot_sector_data
                0x0000000000097f98                active_files
 COMMON         0x0000000000098498      0x100 ../ucos2nios2_bsp//libucosii_bsp.a(alt_irq_handler.o)
                0x0000000000098498                alt_irq
                0x0000000000098598                . = ALIGN (0x4)
                0x0000000000098598                __bss_end = ABSOLUTE (.)

.SDRAM          0x0000000000098598        0x0
                [!provide]                        PROVIDE (_alt_partition_SDRAM_start, ABSOLUTE (.))
 *(.SDRAM .SDRAM. SDRAM.*)
                0x0000000000098598                . = ALIGN (0x4)
                [!provide]                        PROVIDE (_alt_partition_SDRAM_end, ABSOLUTE (.))
                0x0000000000098598                _end = ABSOLUTE (.)
                0x0000000000098598                end = ABSOLUTE (.)
                0x0000000000098598                __alt_stack_base = ABSOLUTE (.)
                [!provide]                        PROVIDE (_alt_partition_SDRAM_load_addr, LOADADDR (.SDRAM))

.VGA_Subsystem_Char_Buf_Subsystem_Onchip_SRAM
                0x0000000009000000        0x0 load address 0x0000000000098598
                [!provide]                        PROVIDE (_alt_partition_VGA_Subsystem_Char_Buf_Subsystem_Onchip_SRAM_start, ABSOLUTE (.))
 *(.VGA_Subsystem_Char_Buf_Subsystem_Onchip_SRAM .VGA_Subsystem_Char_Buf_Subsystem_Onchip_SRAM. VGA_Subsystem_Char_Buf_Subsystem_Onchip_SRAM.*)
                0x0000000009000000                . = ALIGN (0x4)
                [!provide]                        PROVIDE (_alt_partition_VGA_Subsystem_Char_Buf_Subsystem_Onchip_SRAM_end, ABSOLUTE (.))
                [!provide]                        PROVIDE (_alt_partition_VGA_Subsystem_Char_Buf_Subsystem_Onchip_SRAM_load_addr, LOADADDR (.VGA_Subsystem_Char_Buf_Subsystem_Onchip_SRAM))

.stab
 *(.stab)

.stabstr
 *(.stabstr)

.stab.excl
 *(.stab.excl)

.stab.exclstr
 *(.stab.exclstr)

.stab.index
 *(.stab.index)

.stab.indexstr
 *(.stab.indexstr)

.comment        0x0000000000000000       0x23
 *(.comment)
 .comment       0x0000000000000000       0x23 obj/default/pong.o
                                         0x24 (size before relaxing)
 .comment       0x0000000000000023       0x24 obj/default/vga_stuff.o
 .comment       0x0000000000000023       0x24 /opt/intelFPGA/18.1/nios2eds/bin/gnu/H-x86_64-pc-linux-gnu/bin/../lib/gcc/nios2-elf/5.3.0/../../../../../H-x86_64-pc-linux-gnu/nios2-elf/lib/mhw-mulx/libc.a(lib_a-malloc.o)
 .comment       0x0000000000000023       0x24 /opt/intelFPGA/18.1/nios2eds/bin/gnu/H-x86_64-pc-linux-gnu/bin/../lib/gcc/nios2-elf/5.3.0/../../../../../H-x86_64-pc-linux-gnu/nios2-elf/lib/mhw-mulx/libc.a(lib_a-mallocr.o)
 .comment       0x0000000000000023       0x24 /opt/intelFPGA/18.1/nios2eds/bin/gnu/H-x86_64-pc-linux-gnu/bin/../lib/gcc/nios2-elf/5.3.0/../../../../../H-x86_64-pc-linux-gnu/nios2-elf/lib/mhw-mulx/libc.a(lib_a-printf.o)
 .comment       0x0000000000000023       0x24 /opt/intelFPGA/18.1/nios2eds/bin/gnu/H-x86_64-pc-linux-gnu/bin/../lib/gcc/nios2-elf/5.3.0/../../../../../H-x86_64-pc-linux-gnu/nios2-elf/lib/mhw-mulx/libc.a(lib_a-puts.o)
 .comment       0x0000000000000023       0x24 /opt/intelFPGA/18.1/nios2eds/bin/gnu/H-x86_64-pc-linux-gnu/bin/../lib/gcc/nios2-elf/5.3.0/../../../../../H-x86_64-pc-linux-gnu/nios2-elf/lib/mhw-mulx/libc.a(lib_a-sbrkr.o)
 .comment       0x0000000000000023       0x24 /opt/intelFPGA/18.1/nios2eds/bin/gnu/H-x86_64-pc-linux-gnu/bin/../lib/gcc/nios2-elf/5.3.0/../../../../../H-x86_64-pc-linux-gnu/nios2-elf/lib/mhw-mulx/libc.a(lib_a-snprintf.o)
 .comment       0x0000000000000023       0x24 /opt/intelFPGA/18.1/nios2eds/bin/gnu/H-x86_64-pc-linux-gnu/bin/../lib/gcc/nios2-elf/5.3.0/../../../../../H-x86_64-pc-linux-gnu/nios2-elf/lib/mhw-mulx/libc.a(lib_a-strcat.o)
 .comment       0x0000000000000023       0x24 /opt/intelFPGA/18.1/nios2eds/bin/gnu/H-x86_64-pc-linux-gnu/bin/../lib/gcc/nios2-elf/5.3.0/../../../../../H-x86_64-pc-linux-gnu/nios2-elf/lib/mhw-mulx/libc.a(lib_a-strcpy.o)
 .comment       0x0000000000000023       0x24 /opt/intelFPGA/18.1/nios2eds/bin/gnu/H-x86_64-pc-linux-gnu/bin/../lib/gcc/nios2-elf/5.3.0/../../../../../H-x86_64-pc-linux-gnu/nios2-elf/lib/mhw-mulx/libc.a(lib_a-strlen.o)
 .comment       0x0000000000000023       0x24 /opt/intelFPGA/18.1/nios2eds/bin/gnu/H-x86_64-pc-linux-gnu/bin/../lib/gcc/nios2-elf/5.3.0/../../../../../H-x86_64-pc-linux-gnu/nios2-elf/lib/mhw-mulx/libc.a(lib_a-svfprintf.o)
 .comment       0x0000000000000023       0x24 /opt/intelFPGA/18.1/nios2eds/bin/gnu/H-x86_64-pc-linux-gnu/bin/../lib/gcc/nios2-elf/5.3.0/../../../../../H-x86_64-pc-linux-gnu/nios2-elf/lib/mhw-mulx/libc.a(lib_a-vfprintf.o)
 .comment       0x0000000000000023       0x24 /opt/intelFPGA/18.1/nios2eds/bin/gnu/H-x86_64-pc-linux-gnu/bin/../lib/gcc/nios2-elf/5.3.0/../../../../../H-x86_64-pc-linux-gnu/nios2-elf/lib/mhw-mulx/libc.a(lib_a-wsetup.o)
 .comment       0x0000000000000023       0x24 /opt/intelFPGA/18.1/nios2eds/bin/gnu/H-x86_64-pc-linux-gnu/bin/../lib/gcc/nios2-elf/5.3.0/../../../../../H-x86_64-pc-linux-gnu/nios2-elf/lib/mhw-mulx/libc.a(lib_a-dtoa.o)
 .comment       0x0000000000000023       0x24 /opt/intelFPGA/18.1/nios2eds/bin/gnu/H-x86_64-pc-linux-gnu/bin/../lib/gcc/nios2-elf/5.3.0/../../../../../H-x86_64-pc-linux-gnu/nios2-elf/lib/mhw-mulx/libc.a(lib_a-fflush.o)
 .comment       0x0000000000000023       0x24 /opt/intelFPGA/18.1/nios2eds/bin/gnu/H-x86_64-pc-linux-gnu/bin/../lib/gcc/nios2-elf/5.3.0/../../../../../H-x86_64-pc-linux-gnu/nios2-elf/lib/mhw-mulx/libc.a(lib_a-findfp.o)
 .comment       0x0000000000000023       0x24 /opt/intelFPGA/18.1/nios2eds/bin/gnu/H-x86_64-pc-linux-gnu/bin/../lib/gcc/nios2-elf/5.3.0/../../../../../H-x86_64-pc-linux-gnu/nios2-elf/lib/mhw-mulx/libc.a(lib_a-freer.o)
 .comment       0x0000000000000023       0x24 /opt/intelFPGA/18.1/nios2eds/bin/gnu/H-x86_64-pc-linux-gnu/bin/../lib/gcc/nios2-elf/5.3.0/../../../../../H-x86_64-pc-linux-gnu/nios2-elf/lib/mhw-mulx/libc.a(lib_a-fvwrite.o)
 .comment       0x0000000000000023       0x24 /opt/intelFPGA/18.1/nios2eds/bin/gnu/H-x86_64-pc-linux-gnu/bin/../lib/gcc/nios2-elf/5.3.0/../../../../../H-x86_64-pc-linux-gnu/nios2-elf/lib/mhw-mulx/libc.a(lib_a-fwalk.o)
 .comment       0x0000000000000023       0x24 /opt/intelFPGA/18.1/nios2eds/bin/gnu/H-x86_64-pc-linux-gnu/bin/../lib/gcc/nios2-elf/5.3.0/../../../../../H-x86_64-pc-linux-gnu/nios2-elf/lib/mhw-mulx/libc.a(lib_a-impure.o)
 .comment       0x0000000000000023       0x24 /opt/intelFPGA/18.1/nios2eds/bin/gnu/H-x86_64-pc-linux-gnu/bin/../lib/gcc/nios2-elf/5.3.0/../../../../../H-x86_64-pc-linux-gnu/nios2-elf/lib/mhw-mulx/libc.a(lib_a-int_errno.o)
 .comment       0x0000000000000023       0x24 /opt/intelFPGA/18.1/nios2eds/bin/gnu/H-x86_64-pc-linux-gnu/bin/../lib/gcc/nios2-elf/5.3.0/../../../../../H-x86_64-pc-linux-gnu/nios2-elf/lib/mhw-mulx/libc.a(lib_a-locale.o)
 .comment       0x0000000000000023       0x24 /opt/intelFPGA/18.1/nios2eds/bin/gnu/H-x86_64-pc-linux-gnu/bin/../lib/gcc/nios2-elf/5.3.0/../../../../../H-x86_64-pc-linux-gnu/nios2-elf/lib/mhw-mulx/libc.a(lib_a-makebuf.o)
 .comment       0x0000000000000023       0x24 /opt/intelFPGA/18.1/nios2eds/bin/gnu/H-x86_64-pc-linux-gnu/bin/../lib/gcc/nios2-elf/5.3.0/../../../../../H-x86_64-pc-linux-gnu/nios2-elf/lib/mhw-mulx/libc.a(lib_a-memchr.o)
 .comment       0x0000000000000023       0x24 /opt/intelFPGA/18.1/nios2eds/bin/gnu/H-x86_64-pc-linux-gnu/bin/../lib/gcc/nios2-elf/5.3.0/../../../../../H-x86_64-pc-linux-gnu/nios2-elf/lib/mhw-mulx/libc.a(lib_a-memcpy.o)
 .comment       0x0000000000000023       0x24 /opt/intelFPGA/18.1/nios2eds/bin/gnu/H-x86_64-pc-linux-gnu/bin/../lib/gcc/nios2-elf/5.3.0/../../../../../H-x86_64-pc-linux-gnu/nios2-elf/lib/mhw-mulx/libc.a(lib_a-memmove.o)
 .comment       0x0000000000000023       0x24 /opt/intelFPGA/18.1/nios2eds/bin/gnu/H-x86_64-pc-linux-gnu/bin/../lib/gcc/nios2-elf/5.3.0/../../../../../H-x86_64-pc-linux-gnu/nios2-elf/lib/mhw-mulx/libc.a(lib_a-memset.o)
 .comment       0x0000000000000023       0x24 /opt/intelFPGA/18.1/nios2eds/bin/gnu/H-x86_64-pc-linux-gnu/bin/../lib/gcc/nios2-elf/5.3.0/../../../../../H-x86_64-pc-linux-gnu/nios2-elf/lib/mhw-mulx/libc.a(lib_a-mprec.o)
 .comment       0x0000000000000023       0x24 /opt/intelFPGA/18.1/nios2eds/bin/gnu/H-x86_64-pc-linux-gnu/bin/../lib/gcc/nios2-elf/5.3.0/../../../../../H-x86_64-pc-linux-gnu/nios2-elf/lib/mhw-mulx/libc.a(lib_a-reallocr.o)
 .comment       0x0000000000000023       0x24 /opt/intelFPGA/18.1/nios2eds/bin/gnu/H-x86_64-pc-linux-gnu/bin/../lib/gcc/nios2-elf/5.3.0/../../../../../H-x86_64-pc-linux-gnu/nios2-elf/lib/mhw-mulx/libc.a(lib_a-s_fpclassify.o)
 .comment       0x0000000000000023       0x24 /opt/intelFPGA/18.1/nios2eds/bin/gnu/H-x86_64-pc-linux-gnu/bin/../lib/gcc/nios2-elf/5.3.0/../../../../../H-x86_64-pc-linux-gnu/nios2-elf/lib/mhw-mulx/libc.a(lib_a-stdio.o)
 .comment       0x0000000000000023       0x24 /opt/intelFPGA/18.1/nios2eds/bin/gnu/H-x86_64-pc-linux-gnu/bin/../lib/gcc/nios2-elf/5.3.0/../../../../../H-x86_64-pc-linux-gnu/nios2-elf/lib/mhw-mulx/libc.a(lib_a-strcmp.o)
 .comment       0x0000000000000023       0x24 /opt/intelFPGA/18.1/nios2eds/bin/gnu/H-x86_64-pc-linux-gnu/bin/../lib/gcc/nios2-elf/5.3.0/../../../../../H-x86_64-pc-linux-gnu/nios2-elf/lib/mhw-mulx/libc.a(lib_a-svfiprintf.o)
 .comment       0x0000000000000023       0x24 /opt/intelFPGA/18.1/nios2eds/bin/gnu/H-x86_64-pc-linux-gnu/bin/../lib/gcc/nios2-elf/5.3.0/../../../../../H-x86_64-pc-linux-gnu/nios2-elf/lib/mhw-mulx/libc.a(lib_a-vfiprintf.o)
 .comment       0x0000000000000023       0x24 /opt/intelFPGA/18.1/nios2eds/bin/gnu/H-x86_64-pc-linux-gnu/bin/../lib/gcc/nios2-elf/5.3.0/../../../../../H-x86_64-pc-linux-gnu/nios2-elf/lib/mhw-mulx/libc.a(lib_a-writer.o)
 .comment       0x0000000000000023       0x24 /opt/intelFPGA/18.1/nios2eds/bin/gnu/H-x86_64-pc-linux-gnu/bin/../lib/gcc/nios2-elf/5.3.0/../../../../../H-x86_64-pc-linux-gnu/nios2-elf/lib/mhw-mulx/libc.a(closer.o)
 .comment       0x0000000000000023       0x24 /opt/intelFPGA/18.1/nios2eds/bin/gnu/H-x86_64-pc-linux-gnu/bin/../lib/gcc/nios2-elf/5.3.0/../../../../../H-x86_64-pc-linux-gnu/nios2-elf/lib/mhw-mulx/libc.a(lib_a-callocr.o)
 .comment       0x0000000000000023       0x24 /opt/intelFPGA/18.1/nios2eds/bin/gnu/H-x86_64-pc-linux-gnu/bin/../lib/gcc/nios2-elf/5.3.0/../../../../../H-x86_64-pc-linux-gnu/nios2-elf/lib/mhw-mulx/libc.a(lib_a-fclose.o)
 .comment       0x0000000000000023       0x24 /opt/intelFPGA/18.1/nios2eds/bin/gnu/H-x86_64-pc-linux-gnu/bin/../lib/gcc/nios2-elf/5.3.0/../../../../../H-x86_64-pc-linux-gnu/nios2-elf/lib/mhw-mulx/libc.a(lib_a-fputwc.o)
 .comment       0x0000000000000023       0x24 /opt/intelFPGA/18.1/nios2eds/bin/gnu/H-x86_64-pc-linux-gnu/bin/../lib/gcc/nios2-elf/5.3.0/../../../../../H-x86_64-pc-linux-gnu/nios2-elf/lib/mhw-mulx/libc.a(lib_a-fstatr.o)
 .comment       0x0000000000000023       0x24 /opt/intelFPGA/18.1/nios2eds/bin/gnu/H-x86_64-pc-linux-gnu/bin/../lib/gcc/nios2-elf/5.3.0/../../../../../H-x86_64-pc-linux-gnu/nios2-elf/lib/mhw-mulx/libc.a(lib_a-isattyr.o)
 .comment       0x0000000000000023       0x24 /opt/intelFPGA/18.1/nios2eds/bin/gnu/H-x86_64-pc-linux-gnu/bin/../lib/gcc/nios2-elf/5.3.0/../../../../../H-x86_64-pc-linux-gnu/nios2-elf/lib/mhw-mulx/libc.a(lib_a-lseekr.o)
 .comment       0x0000000000000023       0x24 /opt/intelFPGA/18.1/nios2eds/bin/gnu/H-x86_64-pc-linux-gnu/bin/../lib/gcc/nios2-elf/5.3.0/../../../../../H-x86_64-pc-linux-gnu/nios2-elf/lib/mhw-mulx/libc.a(lib_a-readr.o)
 .comment       0x0000000000000023       0x24 /opt/intelFPGA/18.1/nios2eds/bin/gnu/H-x86_64-pc-linux-gnu/bin/../lib/gcc/nios2-elf/5.3.0/../../../../../H-x86_64-pc-linux-gnu/nios2-elf/lib/mhw-mulx/libc.a(lib_a-wbuf.o)
 .comment       0x0000000000000023       0x24 /opt/intelFPGA/18.1/nios2eds/bin/gnu/H-x86_64-pc-linux-gnu/bin/../lib/gcc/nios2-elf/5.3.0/../../../../../H-x86_64-pc-linux-gnu/nios2-elf/lib/mhw-mulx/libc.a(lib_a-wcrtomb.o)
 .comment       0x0000000000000023       0x24 /opt/intelFPGA/18.1/nios2eds/bin/gnu/H-x86_64-pc-linux-gnu/bin/../lib/gcc/nios2-elf/5.3.0/../../../../../H-x86_64-pc-linux-gnu/nios2-elf/lib/mhw-mulx/libc.a(lib_a-wctomb_r.o)
 .comment       0x0000000000000023       0x24 /opt/intelFPGA/18.1/nios2eds/bin/gnu/H-x86_64-pc-linux-gnu/bin/../lib/gcc/nios2-elf/5.3.0/mhw-mulx/libgcc.a(_udivdi3.o)
 .comment       0x0000000000000023       0x24 /opt/intelFPGA/18.1/nios2eds/bin/gnu/H-x86_64-pc-linux-gnu/bin/../lib/gcc/nios2-elf/5.3.0/mhw-mulx/libgcc.a(_umoddi3.o)
 .comment       0x0000000000000023       0x24 /opt/intelFPGA/18.1/nios2eds/bin/gnu/H-x86_64-pc-linux-gnu/bin/../lib/gcc/nios2-elf/5.3.0/mhw-mulx/libgcc.a(lib2-divmod.o)
 .comment       0x0000000000000023       0x24 /opt/intelFPGA/18.1/nios2eds/bin/gnu/H-x86_64-pc-linux-gnu/bin/../lib/gcc/nios2-elf/5.3.0/mhw-mulx/libgcc.a(adddf3.o)
 .comment       0x0000000000000023       0x24 /opt/intelFPGA/18.1/nios2eds/bin/gnu/H-x86_64-pc-linux-gnu/bin/../lib/gcc/nios2-elf/5.3.0/mhw-mulx/libgcc.a(divdf3.o)
 .comment       0x0000000000000023       0x24 /opt/intelFPGA/18.1/nios2eds/bin/gnu/H-x86_64-pc-linux-gnu/bin/../lib/gcc/nios2-elf/5.3.0/mhw-mulx/libgcc.a(eqdf2.o)
 .comment       0x0000000000000023       0x24 /opt/intelFPGA/18.1/nios2eds/bin/gnu/H-x86_64-pc-linux-gnu/bin/../lib/gcc/nios2-elf/5.3.0/mhw-mulx/libgcc.a(gedf2.o)
 .comment       0x0000000000000023       0x24 /opt/intelFPGA/18.1/nios2eds/bin/gnu/H-x86_64-pc-linux-gnu/bin/../lib/gcc/nios2-elf/5.3.0/mhw-mulx/libgcc.a(ledf2.o)
 .comment       0x0000000000000023       0x24 /opt/intelFPGA/18.1/nios2eds/bin/gnu/H-x86_64-pc-linux-gnu/bin/../lib/gcc/nios2-elf/5.3.0/mhw-mulx/libgcc.a(muldf3.o)
 .comment       0x0000000000000023       0x24 /opt/intelFPGA/18.1/nios2eds/bin/gnu/H-x86_64-pc-linux-gnu/bin/../lib/gcc/nios2-elf/5.3.0/mhw-mulx/libgcc.a(subdf3.o)
 .comment       0x0000000000000023       0x24 /opt/intelFPGA/18.1/nios2eds/bin/gnu/H-x86_64-pc-linux-gnu/bin/../lib/gcc/nios2-elf/5.3.0/mhw-mulx/libgcc.a(fixdfsi.o)
 .comment       0x0000000000000023       0x24 /opt/intelFPGA/18.1/nios2eds/bin/gnu/H-x86_64-pc-linux-gnu/bin/../lib/gcc/nios2-elf/5.3.0/mhw-mulx/libgcc.a(floatsidf.o)
 .comment       0x0000000000000023       0x24 /opt/intelFPGA/18.1/nios2eds/bin/gnu/H-x86_64-pc-linux-gnu/bin/../lib/gcc/nios2-elf/5.3.0/mhw-mulx/libgcc.a(floatunsidf.o)
 .comment       0x0000000000000023       0x24 /opt/intelFPGA/18.1/nios2eds/bin/gnu/H-x86_64-pc-linux-gnu/bin/../lib/gcc/nios2-elf/5.3.0/mhw-mulx/libgcc.a(_clz.o)
 .comment       0x0000000000000023       0x24 /opt/intelFPGA/18.1/nios2eds/bin/gnu/H-x86_64-pc-linux-gnu/bin/../lib/gcc/nios2-elf/5.3.0/mhw-mulx/libgcc.a(_clzsi2.o)
 .comment       0x0000000000000023       0x24 ../ucos2nios2_bsp//libucosii_bsp.a(alt_close.o)
 .comment       0x0000000000000023       0x24 ../ucos2nios2_bsp//libucosii_bsp.a(alt_dev.o)
 .comment       0x0000000000000023       0x24 ../ucos2nios2_bsp//libucosii_bsp.a(alt_errno.o)
 .comment       0x0000000000000023       0x24 ../ucos2nios2_bsp//libucosii_bsp.a(alt_fstat.o)
 .comment       0x0000000000000023       0x24 ../ucos2nios2_bsp//libucosii_bsp.a(alt_isatty.o)
 .comment       0x0000000000000023       0x24 ../ucos2nios2_bsp//libucosii_bsp.a(alt_load.o)
 .comment       0x0000000000000023       0x24 ../ucos2nios2_bsp//libucosii_bsp.a(alt_lseek.o)
 .comment       0x0000000000000023       0x24 ../ucos2nios2_bsp//libucosii_bsp.a(alt_main.o)
 .comment       0x0000000000000023       0x24 ../ucos2nios2_bsp//libucosii_bsp.a(alt_read.o)
 .comment       0x0000000000000023       0x24 ../ucos2nios2_bsp//libucosii_bsp.a(alt_release_fd.o)
 .comment       0x0000000000000023       0x24 ../ucos2nios2_bsp//libucosii_bsp.a(alt_sbrk.o)
 .comment       0x0000000000000023       0x24 ../ucos2nios2_bsp//libucosii_bsp.a(alt_write.o)
 .comment       0x0000000000000023       0x24 ../ucos2nios2_bsp//libucosii_bsp.a(alt_env_lock.o)
 .comment       0x0000000000000023       0x24 ../ucos2nios2_bsp//libucosii_bsp.a(alt_malloc_lock.o)
 .comment       0x0000000000000023       0x24 ../ucos2nios2_bsp//libucosii_bsp.a(os_core.o)
 .comment       0x0000000000000023       0x24 ../ucos2nios2_bsp//libucosii_bsp.a(os_dbg.o)
 .comment       0x0000000000000023       0x24 ../ucos2nios2_bsp//libucosii_bsp.a(os_flag.o)
 .comment       0x0000000000000023       0x24 ../ucos2nios2_bsp//libucosii_bsp.a(os_mbox.o)
 .comment       0x0000000000000023       0x24 ../ucos2nios2_bsp//libucosii_bsp.a(os_mem.o)
 .comment       0x0000000000000023       0x24 ../ucos2nios2_bsp//libucosii_bsp.a(os_q.o)
 .comment       0x0000000000000023       0x24 ../ucos2nios2_bsp//libucosii_bsp.a(os_sem.o)
 .comment       0x0000000000000023       0x24 ../ucos2nios2_bsp//libucosii_bsp.a(os_task.o)
 .comment       0x0000000000000023       0x24 ../ucos2nios2_bsp//libucosii_bsp.a(os_time.o)
 .comment       0x0000000000000023       0x24 ../ucos2nios2_bsp//libucosii_bsp.a(alt_sys_init.o)
 .comment       0x0000000000000023       0x24 ../ucos2nios2_bsp//libucosii_bsp.a(Altera_UP_SD_Card_Avalon_Interface.o)
 .comment       0x0000000000000023       0x24 ../ucos2nios2_bsp//libucosii_bsp.a(altera_avalon_jtag_uart_fd.o)
 .comment       0x0000000000000023       0x24 ../ucos2nios2_bsp//libucosii_bsp.a(altera_avalon_jtag_uart_init.o)
 .comment       0x0000000000000023       0x24 ../ucos2nios2_bsp//libucosii_bsp.a(altera_avalon_jtag_uart_ioctl.o)
 .comment       0x0000000000000023       0x24 ../ucos2nios2_bsp//libucosii_bsp.a(altera_avalon_jtag_uart_read.o)
 .comment       0x0000000000000023       0x24 ../ucos2nios2_bsp//libucosii_bsp.a(altera_avalon_jtag_uart_write.o)
 .comment       0x0000000000000023       0x24 ../ucos2nios2_bsp//libucosii_bsp.a(altera_avalon_timer_sc.o)
 .comment       0x0000000000000023       0x24 ../ucos2nios2_bsp//libucosii_bsp.a(altera_up_avalon_audio.o)
 .comment       0x0000000000000023       0x24 ../ucos2nios2_bsp//libucosii_bsp.a(altera_up_avalon_character_lcd.o)
 .comment       0x0000000000000023       0x24 ../ucos2nios2_bsp//libucosii_bsp.a(altera_up_avalon_irda.o)
 .comment       0x0000000000000023       0x24 ../ucos2nios2_bsp//libucosii_bsp.a(altera_up_avalon_ps2.o)
 .comment       0x0000000000000023       0x24 ../ucos2nios2_bsp//libucosii_bsp.a(altera_up_avalon_rs232.o)
 .comment       0x0000000000000023       0x24 ../ucos2nios2_bsp//libucosii_bsp.a(altera_up_ps2_keyboard.o)
 .comment       0x0000000000000023       0x24 ../ucos2nios2_bsp//libucosii_bsp.a(alt_alarm_start.o)
 .comment       0x0000000000000023       0x24 ../ucos2nios2_bsp//libucosii_bsp.a(alt_dcache_flush_all.o)
 .comment       0x0000000000000023       0x24 ../ucos2nios2_bsp//libucosii_bsp.a(alt_dev_llist_insert.o)
 .comment       0x0000000000000023       0x24 ../ucos2nios2_bsp//libucosii_bsp.a(alt_do_ctors.o)
 .comment       0x0000000000000023       0x24 ../ucos2nios2_bsp//libucosii_bsp.a(alt_do_dtors.o)
 .comment       0x0000000000000023       0x24 ../ucos2nios2_bsp//libucosii_bsp.a(alt_find_dev.o)
 .comment       0x0000000000000023       0x24 ../ucos2nios2_bsp//libucosii_bsp.a(alt_icache_flush_all.o)
 .comment       0x0000000000000023       0x24 ../ucos2nios2_bsp//libucosii_bsp.a(alt_io_redirect.o)
 .comment       0x0000000000000023       0x24 ../ucos2nios2_bsp//libucosii_bsp.a(alt_irq_register.o)
 .comment       0x0000000000000023       0x24 ../ucos2nios2_bsp//libucosii_bsp.a(alt_irq_vars.o)
 .comment       0x0000000000000023       0x24 ../ucos2nios2_bsp//libucosii_bsp.a(alt_open.o)
 .comment       0x0000000000000023       0x24 ../ucos2nios2_bsp//libucosii_bsp.a(alt_tick.o)
 .comment       0x0000000000000023       0x24 ../ucos2nios2_bsp//libucosii_bsp.a(altera_nios2_gen2_irq.o)
 .comment       0x0000000000000023       0x24 ../ucos2nios2_bsp//libucosii_bsp.a(os_cpu_c.o)
 .comment       0x0000000000000023       0x24 ../ucos2nios2_bsp//libucosii_bsp.a(alt_find_file.o)
 .comment       0x0000000000000023       0x24 ../ucos2nios2_bsp//libucosii_bsp.a(alt_get_fd.o)
 .comment       0x0000000000000023       0x24 ../ucos2nios2_bsp//libucosii_bsp.a(alt_icache_flush.o)
 .comment       0x0000000000000023       0x24 ../ucos2nios2_bsp//libucosii_bsp.a(alt_irq_handler.o)
 .comment       0x0000000000000023       0x24 ../ucos2nios2_bsp//libucosii_bsp.a(alt_instruction_exception_entry.o)
 .comment       0x0000000000000023       0x24 /opt/intelFPGA/18.1/nios2eds/bin/gnu/H-x86_64-pc-linux-gnu/bin/../lib/gcc/nios2-elf/5.3.0/../../../../../H-x86_64-pc-linux-gnu/nios2-elf/lib/mhw-mulx/libc.a(lib_a-atexit.o)
 .comment       0x0000000000000023       0x24 /opt/intelFPGA/18.1/nios2eds/bin/gnu/H-x86_64-pc-linux-gnu/bin/../lib/gcc/nios2-elf/5.3.0/../../../../../H-x86_64-pc-linux-gnu/nios2-elf/lib/mhw-mulx/libc.a(lib_a-exit.o)
 .comment       0x0000000000000023       0x24 /opt/intelFPGA/18.1/nios2eds/bin/gnu/H-x86_64-pc-linux-gnu/bin/../lib/gcc/nios2-elf/5.3.0/../../../../../H-x86_64-pc-linux-gnu/nios2-elf/lib/mhw-mulx/libc.a(lib_a-memcmp.o)
 .comment       0x0000000000000023       0x24 /opt/intelFPGA/18.1/nios2eds/bin/gnu/H-x86_64-pc-linux-gnu/bin/../lib/gcc/nios2-elf/5.3.0/../../../../../H-x86_64-pc-linux-gnu/nios2-elf/lib/mhw-mulx/libc.a(lib_a-__atexit.o)
 .comment       0x0000000000000023       0x24 /opt/intelFPGA/18.1/nios2eds/bin/gnu/H-x86_64-pc-linux-gnu/bin/../lib/gcc/nios2-elf/5.3.0/../../../../../H-x86_64-pc-linux-gnu/nios2-elf/lib/mhw-mulx/libc.a(lib_a-__call_atexit.o)
 .comment       0x0000000000000023       0x24 ../ucos2nios2_bsp//libucosii_bsp.a(alt_exit.o)

.debug
 *(.debug)

.line
 *(.line)

.debug_srcinfo
 *(.debug_srcinfo)

.debug_sfnames
 *(.debug_sfnames)

.debug_aranges  0x0000000000000000     0x11f0
 *(.debug_aranges)
 .debug_aranges
                0x0000000000000000       0x28 ../ucos2nios2_bsp//obj/HAL/src/crt0.o
 .debug_aranges
                0x0000000000000028       0x20 obj/default/pong.o
 .debug_aranges
                0x0000000000000048       0x20 obj/default/vga_stuff.o
 .debug_aranges
                0x0000000000000068       0x28 /opt/intelFPGA/18.1/nios2eds/bin/gnu/H-x86_64-pc-linux-gnu/bin/../lib/gcc/nios2-elf/5.3.0/../../../../../H-x86_64-pc-linux-gnu/nios2-elf/lib/mhw-mulx/libc.a(lib_a-malloc.o)
 .debug_aranges
                0x0000000000000090       0x20 /opt/intelFPGA/18.1/nios2eds/bin/gnu/H-x86_64-pc-linux-gnu/bin/../lib/gcc/nios2-elf/5.3.0/../../../../../H-x86_64-pc-linux-gnu/nios2-elf/lib/mhw-mulx/libc.a(lib_a-mallocr.o)
 .debug_aranges
                0x00000000000000b0       0x28 /opt/intelFPGA/18.1/nios2eds/bin/gnu/H-x86_64-pc-linux-gnu/bin/../lib/gcc/nios2-elf/5.3.0/../../../../../H-x86_64-pc-linux-gnu/nios2-elf/lib/mhw-mulx/libc.a(lib_a-printf.o)
 .debug_aranges
                0x00000000000000d8       0x28 /opt/intelFPGA/18.1/nios2eds/bin/gnu/H-x86_64-pc-linux-gnu/bin/../lib/gcc/nios2-elf/5.3.0/../../../../../H-x86_64-pc-linux-gnu/nios2-elf/lib/mhw-mulx/libc.a(lib_a-puts.o)
 .debug_aranges
                0x0000000000000100       0x20 /opt/intelFPGA/18.1/nios2eds/bin/gnu/H-x86_64-pc-linux-gnu/bin/../lib/gcc/nios2-elf/5.3.0/../../../../../H-x86_64-pc-linux-gnu/nios2-elf/lib/mhw-mulx/libc.a(lib_a-sbrkr.o)
 .debug_aranges
                0x0000000000000120       0x28 /opt/intelFPGA/18.1/nios2eds/bin/gnu/H-x86_64-pc-linux-gnu/bin/../lib/gcc/nios2-elf/5.3.0/../../../../../H-x86_64-pc-linux-gnu/nios2-elf/lib/mhw-mulx/libc.a(lib_a-snprintf.o)
 .debug_aranges
                0x0000000000000148       0x20 /opt/intelFPGA/18.1/nios2eds/bin/gnu/H-x86_64-pc-linux-gnu/bin/../lib/gcc/nios2-elf/5.3.0/../../../../../H-x86_64-pc-linux-gnu/nios2-elf/lib/mhw-mulx/libc.a(lib_a-strcat.o)
 .debug_aranges
                0x0000000000000168       0x20 /opt/intelFPGA/18.1/nios2eds/bin/gnu/H-x86_64-pc-linux-gnu/bin/../lib/gcc/nios2-elf/5.3.0/../../../../../H-x86_64-pc-linux-gnu/nios2-elf/lib/mhw-mulx/libc.a(lib_a-strcpy.o)
 .debug_aranges
                0x0000000000000188       0x20 /opt/intelFPGA/18.1/nios2eds/bin/gnu/H-x86_64-pc-linux-gnu/bin/../lib/gcc/nios2-elf/5.3.0/../../../../../H-x86_64-pc-linux-gnu/nios2-elf/lib/mhw-mulx/libc.a(lib_a-strlen.o)
 .debug_aranges
                0x00000000000001a8       0x20 /opt/intelFPGA/18.1/nios2eds/bin/gnu/H-x86_64-pc-linux-gnu/bin/../lib/gcc/nios2-elf/5.3.0/../../../../../H-x86_64-pc-linux-gnu/nios2-elf/lib/mhw-mulx/libc.a(lib_a-svfprintf.o)
 .debug_aranges
                0x00000000000001c8       0x30 /opt/intelFPGA/18.1/nios2eds/bin/gnu/H-x86_64-pc-linux-gnu/bin/../lib/gcc/nios2-elf/5.3.0/../../../../../H-x86_64-pc-linux-gnu/nios2-elf/lib/mhw-mulx/libc.a(lib_a-vfprintf.o)
 .debug_aranges
                0x00000000000001f8       0x20 /opt/intelFPGA/18.1/nios2eds/bin/gnu/H-x86_64-pc-linux-gnu/bin/../lib/gcc/nios2-elf/5.3.0/../../../../../H-x86_64-pc-linux-gnu/nios2-elf/lib/mhw-mulx/libc.a(lib_a-wsetup.o)
 .debug_aranges
                0x0000000000000218       0x28 /opt/intelFPGA/18.1/nios2eds/bin/gnu/H-x86_64-pc-linux-gnu/bin/../lib/gcc/nios2-elf/5.3.0/../../../../../H-x86_64-pc-linux-gnu/nios2-elf/lib/mhw-mulx/libc.a(lib_a-dtoa.o)
 .debug_aranges
                0x0000000000000240       0x30 /opt/intelFPGA/18.1/nios2eds/bin/gnu/H-x86_64-pc-linux-gnu/bin/../lib/gcc/nios2-elf/5.3.0/../../../../../H-x86_64-pc-linux-gnu/nios2-elf/lib/mhw-mulx/libc.a(lib_a-fflush.o)
 .debug_aranges
                0x0000000000000270       0x68 /opt/intelFPGA/18.1/nios2eds/bin/gnu/H-x86_64-pc-linux-gnu/bin/../lib/gcc/nios2-elf/5.3.0/../../../../../H-x86_64-pc-linux-gnu/nios2-elf/lib/mhw-mulx/libc.a(lib_a-findfp.o)
 .debug_aranges
                0x00000000000002d8       0x28 /opt/intelFPGA/18.1/nios2eds/bin/gnu/H-x86_64-pc-linux-gnu/bin/../lib/gcc/nios2-elf/5.3.0/../../../../../H-x86_64-pc-linux-gnu/nios2-elf/lib/mhw-mulx/libc.a(lib_a-freer.o)
 .debug_aranges
                0x0000000000000300       0x20 /opt/intelFPGA/18.1/nios2eds/bin/gnu/H-x86_64-pc-linux-gnu/bin/../lib/gcc/nios2-elf/5.3.0/../../../../../H-x86_64-pc-linux-gnu/nios2-elf/lib/mhw-mulx/libc.a(lib_a-fvwrite.o)
 .debug_aranges
                0x0000000000000320       0x28 /opt/intelFPGA/18.1/nios2eds/bin/gnu/H-x86_64-pc-linux-gnu/bin/../lib/gcc/nios2-elf/5.3.0/../../../../../H-x86_64-pc-linux-gnu/nios2-elf/lib/mhw-mulx/libc.a(lib_a-fwalk.o)
 .debug_aranges
                0x0000000000000348       0x18 /opt/intelFPGA/18.1/nios2eds/bin/gnu/H-x86_64-pc-linux-gnu/bin/../lib/gcc/nios2-elf/5.3.0/../../../../../H-x86_64-pc-linux-gnu/nios2-elf/lib/mhw-mulx/libc.a(lib_a-impure.o)
 .debug_aranges
                0x0000000000000360       0x18 /opt/intelFPGA/18.1/nios2eds/bin/gnu/H-x86_64-pc-linux-gnu/bin/../lib/gcc/nios2-elf/5.3.0/../../../../../H-x86_64-pc-linux-gnu/nios2-elf/lib/mhw-mulx/libc.a(lib_a-int_errno.o)
 .debug_aranges
                0x0000000000000378       0x58 /opt/intelFPGA/18.1/nios2eds/bin/gnu/H-x86_64-pc-linux-gnu/bin/../lib/gcc/nios2-elf/5.3.0/../../../../../H-x86_64-pc-linux-gnu/nios2-elf/lib/mhw-mulx/libc.a(lib_a-locale.o)
 .debug_aranges
                0x00000000000003d0       0x20 /opt/intelFPGA/18.1/nios2eds/bin/gnu/H-x86_64-pc-linux-gnu/bin/../lib/gcc/nios2-elf/5.3.0/../../../../../H-x86_64-pc-linux-gnu/nios2-elf/lib/mhw-mulx/libc.a(lib_a-makebuf.o)
 .debug_aranges
                0x00000000000003f0       0x20 /opt/intelFPGA/18.1/nios2eds/bin/gnu/H-x86_64-pc-linux-gnu/bin/../lib/gcc/nios2-elf/5.3.0/../../../../../H-x86_64-pc-linux-gnu/nios2-elf/lib/mhw-mulx/libc.a(lib_a-memchr.o)
 .debug_aranges
                0x0000000000000410       0x20 /opt/intelFPGA/18.1/nios2eds/bin/gnu/H-x86_64-pc-linux-gnu/bin/../lib/gcc/nios2-elf/5.3.0/../../../../../H-x86_64-pc-linux-gnu/nios2-elf/lib/mhw-mulx/libc.a(lib_a-memcpy.o)
 .debug_aranges
                0x0000000000000430       0x20 /opt/intelFPGA/18.1/nios2eds/bin/gnu/H-x86_64-pc-linux-gnu/bin/../lib/gcc/nios2-elf/5.3.0/../../../../../H-x86_64-pc-linux-gnu/nios2-elf/lib/mhw-mulx/libc.a(lib_a-memmove.o)
 .debug_aranges
                0x0000000000000450       0x20 /opt/intelFPGA/18.1/nios2eds/bin/gnu/H-x86_64-pc-linux-gnu/bin/../lib/gcc/nios2-elf/5.3.0/../../../../../H-x86_64-pc-linux-gnu/nios2-elf/lib/mhw-mulx/libc.a(lib_a-memset.o)
 .debug_aranges
                0x0000000000000470       0xb0 /opt/intelFPGA/18.1/nios2eds/bin/gnu/H-x86_64-pc-linux-gnu/bin/../lib/gcc/nios2-elf/5.3.0/../../../../../H-x86_64-pc-linux-gnu/nios2-elf/lib/mhw-mulx/libc.a(lib_a-mprec.o)
 .debug_aranges
                0x0000000000000520       0x20 /opt/intelFPGA/18.1/nios2eds/bin/gnu/H-x86_64-pc-linux-gnu/bin/../lib/gcc/nios2-elf/5.3.0/../../../../../H-x86_64-pc-linux-gnu/nios2-elf/lib/mhw-mulx/libc.a(lib_a-reallocr.o)
 .debug_aranges
                0x0000000000000540       0x20 /opt/intelFPGA/18.1/nios2eds/bin/gnu/H-x86_64-pc-linux-gnu/bin/../lib/gcc/nios2-elf/5.3.0/../../../../../H-x86_64-pc-linux-gnu/nios2-elf/lib/mhw-mulx/libc.a(lib_a-s_fpclassify.o)
 .debug_aranges
                0x0000000000000560       0x40 /opt/intelFPGA/18.1/nios2eds/bin/gnu/H-x86_64-pc-linux-gnu/bin/../lib/gcc/nios2-elf/5.3.0/../../../../../H-x86_64-pc-linux-gnu/nios2-elf/lib/mhw-mulx/libc.a(lib_a-stdio.o)
 .debug_aranges
                0x00000000000005a0       0x20 /opt/intelFPGA/18.1/nios2eds/bin/gnu/H-x86_64-pc-linux-gnu/bin/../lib/gcc/nios2-elf/5.3.0/../../../../../H-x86_64-pc-linux-gnu/nios2-elf/lib/mhw-mulx/libc.a(lib_a-strcmp.o)
 .debug_aranges
                0x00000000000005c0       0x28 /opt/intelFPGA/18.1/nios2eds/bin/gnu/H-x86_64-pc-linux-gnu/bin/../lib/gcc/nios2-elf/5.3.0/../../../../../H-x86_64-pc-linux-gnu/nios2-elf/lib/mhw-mulx/libc.a(lib_a-svfiprintf.o)
 .debug_aranges
                0x00000000000005e8       0x40 /opt/intelFPGA/18.1/nios2eds/bin/gnu/H-x86_64-pc-linux-gnu/bin/../lib/gcc/nios2-elf/5.3.0/../../../../../H-x86_64-pc-linux-gnu/nios2-elf/lib/mhw-mulx/libc.a(lib_a-vfiprintf.o)
 .debug_aranges
                0x0000000000000628       0x20 /opt/intelFPGA/18.1/nios2eds/bin/gnu/H-x86_64-pc-linux-gnu/bin/../lib/gcc/nios2-elf/5.3.0/../../../../../H-x86_64-pc-linux-gnu/nios2-elf/lib/mhw-mulx/libc.a(lib_a-writer.o)
 .debug_aranges
                0x0000000000000648       0x20 /opt/intelFPGA/18.1/nios2eds/bin/gnu/H-x86_64-pc-linux-gnu/bin/../lib/gcc/nios2-elf/5.3.0/../../../../../H-x86_64-pc-linux-gnu/nios2-elf/lib/mhw-mulx/libc.a(closer.o)
 .debug_aranges
                0x0000000000000668       0x20 /opt/intelFPGA/18.1/nios2eds/bin/gnu/H-x86_64-pc-linux-gnu/bin/../lib/gcc/nios2-elf/5.3.0/../../../../../H-x86_64-pc-linux-gnu/nios2-elf/lib/mhw-mulx/libc.a(lib_a-callocr.o)
 .debug_aranges
                0x0000000000000688       0x28 /opt/intelFPGA/18.1/nios2eds/bin/gnu/H-x86_64-pc-linux-gnu/bin/../lib/gcc/nios2-elf/5.3.0/../../../../../H-x86_64-pc-linux-gnu/nios2-elf/lib/mhw-mulx/libc.a(lib_a-fclose.o)
 .debug_aranges
                0x00000000000006b0       0x30 /opt/intelFPGA/18.1/nios2eds/bin/gnu/H-x86_64-pc-linux-gnu/bin/../lib/gcc/nios2-elf/5.3.0/../../../../../H-x86_64-pc-linux-gnu/nios2-elf/lib/mhw-mulx/libc.a(lib_a-fputwc.o)
 .debug_aranges
                0x00000000000006e0       0x20 /opt/intelFPGA/18.1/nios2eds/bin/gnu/H-x86_64-pc-linux-gnu/bin/../lib/gcc/nios2-elf/5.3.0/../../../../../H-x86_64-pc-linux-gnu/nios2-elf/lib/mhw-mulx/libc.a(lib_a-fstatr.o)
 .debug_aranges
                0x0000000000000700       0x20 /opt/intelFPGA/18.1/nios2eds/bin/gnu/H-x86_64-pc-linux-gnu/bin/../lib/gcc/nios2-elf/5.3.0/../../../../../H-x86_64-pc-linux-gnu/nios2-elf/lib/mhw-mulx/libc.a(lib_a-isattyr.o)
 .debug_aranges
                0x0000000000000720       0x20 /opt/intelFPGA/18.1/nios2eds/bin/gnu/H-x86_64-pc-linux-gnu/bin/../lib/gcc/nios2-elf/5.3.0/../../../../../H-x86_64-pc-linux-gnu/nios2-elf/lib/mhw-mulx/libc.a(lib_a-lseekr.o)
 .debug_aranges
                0x0000000000000740       0x20 /opt/intelFPGA/18.1/nios2eds/bin/gnu/H-x86_64-pc-linux-gnu/bin/../lib/gcc/nios2-elf/5.3.0/../../../../../H-x86_64-pc-linux-gnu/nios2-elf/lib/mhw-mulx/libc.a(lib_a-readr.o)
 .debug_aranges
                0x0000000000000760       0x28 /opt/intelFPGA/18.1/nios2eds/bin/gnu/H-x86_64-pc-linux-gnu/bin/../lib/gcc/nios2-elf/5.3.0/../../../../../H-x86_64-pc-linux-gnu/nios2-elf/lib/mhw-mulx/libc.a(lib_a-wbuf.o)
 .debug_aranges
                0x0000000000000788       0x28 /opt/intelFPGA/18.1/nios2eds/bin/gnu/H-x86_64-pc-linux-gnu/bin/../lib/gcc/nios2-elf/5.3.0/../../../../../H-x86_64-pc-linux-gnu/nios2-elf/lib/mhw-mulx/libc.a(lib_a-wcrtomb.o)
 .debug_aranges
                0x00000000000007b0       0x28 /opt/intelFPGA/18.1/nios2eds/bin/gnu/H-x86_64-pc-linux-gnu/bin/../lib/gcc/nios2-elf/5.3.0/../../../../../H-x86_64-pc-linux-gnu/nios2-elf/lib/mhw-mulx/libc.a(lib_a-wctomb_r.o)
 .debug_aranges
                0x00000000000007d8       0x20 /opt/intelFPGA/18.1/nios2eds/bin/gnu/H-x86_64-pc-linux-gnu/bin/../lib/gcc/nios2-elf/5.3.0/mhw-mulx/libgcc.a(_udivdi3.o)
 .debug_aranges
                0x00000000000007f8       0x20 /opt/intelFPGA/18.1/nios2eds/bin/gnu/H-x86_64-pc-linux-gnu/bin/../lib/gcc/nios2-elf/5.3.0/mhw-mulx/libgcc.a(_umoddi3.o)
 .debug_aranges
                0x0000000000000818       0x20 /opt/intelFPGA/18.1/nios2eds/bin/gnu/H-x86_64-pc-linux-gnu/bin/../lib/gcc/nios2-elf/5.3.0/mhw-mulx/libgcc.a(lib2-divmod.o)
 .debug_aranges
                0x0000000000000838       0x20 /opt/intelFPGA/18.1/nios2eds/bin/gnu/H-x86_64-pc-linux-gnu/bin/../lib/gcc/nios2-elf/5.3.0/mhw-mulx/libgcc.a(adddf3.o)
 .debug_aranges
                0x0000000000000858       0x20 /opt/intelFPGA/18.1/nios2eds/bin/gnu/H-x86_64-pc-linux-gnu/bin/../lib/gcc/nios2-elf/5.3.0/mhw-mulx/libgcc.a(divdf3.o)
 .debug_aranges
                0x0000000000000878       0x20 /opt/intelFPGA/18.1/nios2eds/bin/gnu/H-x86_64-pc-linux-gnu/bin/../lib/gcc/nios2-elf/5.3.0/mhw-mulx/libgcc.a(eqdf2.o)
 .debug_aranges
                0x0000000000000898       0x20 /opt/intelFPGA/18.1/nios2eds/bin/gnu/H-x86_64-pc-linux-gnu/bin/../lib/gcc/nios2-elf/5.3.0/mhw-mulx/libgcc.a(gedf2.o)
 .debug_aranges
                0x00000000000008b8       0x20 /opt/intelFPGA/18.1/nios2eds/bin/gnu/H-x86_64-pc-linux-gnu/bin/../lib/gcc/nios2-elf/5.3.0/mhw-mulx/libgcc.a(ledf2.o)
 .debug_aranges
                0x00000000000008d8       0x20 /opt/intelFPGA/18.1/nios2eds/bin/gnu/H-x86_64-pc-linux-gnu/bin/../lib/gcc/nios2-elf/5.3.0/mhw-mulx/libgcc.a(muldf3.o)
 .debug_aranges
                0x00000000000008f8       0x20 /opt/intelFPGA/18.1/nios2eds/bin/gnu/H-x86_64-pc-linux-gnu/bin/../lib/gcc/nios2-elf/5.3.0/mhw-mulx/libgcc.a(subdf3.o)
 .debug_aranges
                0x0000000000000918       0x20 /opt/intelFPGA/18.1/nios2eds/bin/gnu/H-x86_64-pc-linux-gnu/bin/../lib/gcc/nios2-elf/5.3.0/mhw-mulx/libgcc.a(fixdfsi.o)
 .debug_aranges
                0x0000000000000938       0x20 /opt/intelFPGA/18.1/nios2eds/bin/gnu/H-x86_64-pc-linux-gnu/bin/../lib/gcc/nios2-elf/5.3.0/mhw-mulx/libgcc.a(floatsidf.o)
 .debug_aranges
                0x0000000000000958       0x20 /opt/intelFPGA/18.1/nios2eds/bin/gnu/H-x86_64-pc-linux-gnu/bin/../lib/gcc/nios2-elf/5.3.0/mhw-mulx/libgcc.a(floatunsidf.o)
 .debug_aranges
                0x0000000000000978       0x18 /opt/intelFPGA/18.1/nios2eds/bin/gnu/H-x86_64-pc-linux-gnu/bin/../lib/gcc/nios2-elf/5.3.0/mhw-mulx/libgcc.a(_clz.o)
 .debug_aranges
                0x0000000000000990       0x20 /opt/intelFPGA/18.1/nios2eds/bin/gnu/H-x86_64-pc-linux-gnu/bin/../lib/gcc/nios2-elf/5.3.0/mhw-mulx/libgcc.a(_clzsi2.o)
 .debug_aranges
                0x00000000000009b0       0x20 ../ucos2nios2_bsp//libucosii_bsp.a(alt_close.o)
 .debug_aranges
                0x00000000000009d0       0x20 ../ucos2nios2_bsp//libucosii_bsp.a(alt_dev.o)
 .debug_aranges
                0x00000000000009f0       0x18 ../ucos2nios2_bsp//libucosii_bsp.a(alt_errno.o)
 .debug_aranges
                0x0000000000000a08       0x20 ../ucos2nios2_bsp//libucosii_bsp.a(alt_fstat.o)
 .debug_aranges
                0x0000000000000a28       0x20 ../ucos2nios2_bsp//libucosii_bsp.a(alt_isatty.o)
 .debug_aranges
                0x0000000000000a48       0x20 ../ucos2nios2_bsp//libucosii_bsp.a(alt_load.o)
 .debug_aranges
                0x0000000000000a68       0x20 ../ucos2nios2_bsp//libucosii_bsp.a(alt_lseek.o)
 .debug_aranges
                0x0000000000000a88       0x20 ../ucos2nios2_bsp//libucosii_bsp.a(alt_main.o)
 .debug_aranges
                0x0000000000000aa8       0x20 ../ucos2nios2_bsp//libucosii_bsp.a(alt_read.o)
 .debug_aranges
                0x0000000000000ac8       0x20 ../ucos2nios2_bsp//libucosii_bsp.a(alt_release_fd.o)
 .debug_aranges
                0x0000000000000ae8       0x20 ../ucos2nios2_bsp//libucosii_bsp.a(alt_sbrk.o)
 .debug_aranges
                0x0000000000000b08       0x20 ../ucos2nios2_bsp//libucosii_bsp.a(alt_write.o)
 .debug_aranges
                0x0000000000000b28       0x20 ../ucos2nios2_bsp//libucosii_bsp.a(alt_env_lock.o)
 .debug_aranges
                0x0000000000000b48       0x20 ../ucos2nios2_bsp//libucosii_bsp.a(alt_malloc_lock.o)
 .debug_aranges
                0x0000000000000b68       0x20 ../ucos2nios2_bsp//libucosii_bsp.a(os_core.o)
 .debug_aranges
                0x0000000000000b88       0x20 ../ucos2nios2_bsp//libucosii_bsp.a(os_dbg.o)
 .debug_aranges
                0x0000000000000ba8       0x20 ../ucos2nios2_bsp//libucosii_bsp.a(os_flag.o)
 .debug_aranges
                0x0000000000000bc8       0x20 ../ucos2nios2_bsp//libucosii_bsp.a(os_mbox.o)
 .debug_aranges
                0x0000000000000be8       0x20 ../ucos2nios2_bsp//libucosii_bsp.a(os_mem.o)
 .debug_aranges
                0x0000000000000c08       0x20 ../ucos2nios2_bsp//libucosii_bsp.a(os_q.o)
 .debug_aranges
                0x0000000000000c28       0x20 ../ucos2nios2_bsp//libucosii_bsp.a(os_sem.o)
 .debug_aranges
                0x0000000000000c48       0x20 ../ucos2nios2_bsp//libucosii_bsp.a(os_task.o)
 .debug_aranges
                0x0000000000000c68       0x20 ../ucos2nios2_bsp//libucosii_bsp.a(os_time.o)
 .debug_aranges
                0x0000000000000c88       0x20 ../ucos2nios2_bsp//libucosii_bsp.a(alt_sys_init.o)
 .debug_aranges
                0x0000000000000ca8       0x20 ../ucos2nios2_bsp//libucosii_bsp.a(Altera_UP_SD_Card_Avalon_Interface.o)
 .debug_aranges
                0x0000000000000cc8       0x20 ../ucos2nios2_bsp//libucosii_bsp.a(altera_avalon_jtag_uart_fd.o)
 .debug_aranges
                0x0000000000000ce8       0x20 ../ucos2nios2_bsp//libucosii_bsp.a(altera_avalon_jtag_uart_init.o)
 .debug_aranges
                0x0000000000000d08       0x20 ../ucos2nios2_bsp//libucosii_bsp.a(altera_avalon_jtag_uart_ioctl.o)
 .debug_aranges
                0x0000000000000d28       0x20 ../ucos2nios2_bsp//libucosii_bsp.a(altera_avalon_jtag_uart_read.o)
 .debug_aranges
                0x0000000000000d48       0x20 ../ucos2nios2_bsp//libucosii_bsp.a(altera_avalon_jtag_uart_write.o)
 .debug_aranges
                0x0000000000000d68       0x20 ../ucos2nios2_bsp//libucosii_bsp.a(altera_avalon_timer_sc.o)
 .debug_aranges
                0x0000000000000d88       0x20 ../ucos2nios2_bsp//libucosii_bsp.a(altera_up_avalon_audio.o)
 .debug_aranges
                0x0000000000000da8       0x20 ../ucos2nios2_bsp//libucosii_bsp.a(altera_up_avalon_character_lcd.o)
 .debug_aranges
                0x0000000000000dc8       0x20 ../ucos2nios2_bsp//libucosii_bsp.a(altera_up_avalon_irda.o)
 .debug_aranges
                0x0000000000000de8       0x20 ../ucos2nios2_bsp//libucosii_bsp.a(altera_up_avalon_ps2.o)
 .debug_aranges
                0x0000000000000e08       0x20 ../ucos2nios2_bsp//libucosii_bsp.a(altera_up_avalon_rs232.o)
 .debug_aranges
                0x0000000000000e28       0x20 ../ucos2nios2_bsp//libucosii_bsp.a(altera_up_ps2_keyboard.o)
 .debug_aranges
                0x0000000000000e48       0x20 ../ucos2nios2_bsp//libucosii_bsp.a(alt_alarm_start.o)
 .debug_aranges
                0x0000000000000e68       0x20 ../ucos2nios2_bsp//libucosii_bsp.a(alt_dcache_flush_all.o)
 .debug_aranges
                0x0000000000000e88       0x20 ../ucos2nios2_bsp//libucosii_bsp.a(alt_dev_llist_insert.o)
 .debug_aranges
                0x0000000000000ea8       0x20 ../ucos2nios2_bsp//libucosii_bsp.a(alt_do_ctors.o)
 .debug_aranges
                0x0000000000000ec8       0x20 ../ucos2nios2_bsp//libucosii_bsp.a(alt_do_dtors.o)
 .debug_aranges
                0x0000000000000ee8       0x20 ../ucos2nios2_bsp//libucosii_bsp.a(alt_find_dev.o)
 .debug_aranges
                0x0000000000000f08       0x20 ../ucos2nios2_bsp//libucosii_bsp.a(alt_icache_flush_all.o)
 .debug_aranges
                0x0000000000000f28       0x20 ../ucos2nios2_bsp//libucosii_bsp.a(alt_io_redirect.o)
 .debug_aranges
                0x0000000000000f48       0x20 ../ucos2nios2_bsp//libucosii_bsp.a(alt_irq_register.o)
 .debug_aranges
                0x0000000000000f68       0x18 ../ucos2nios2_bsp//libucosii_bsp.a(alt_irq_vars.o)
 .debug_aranges
                0x0000000000000f80       0x20 ../ucos2nios2_bsp//libucosii_bsp.a(alt_open.o)
 .debug_aranges
                0x0000000000000fa0       0x20 ../ucos2nios2_bsp//libucosii_bsp.a(alt_tick.o)
 .debug_aranges
                0x0000000000000fc0       0x20 ../ucos2nios2_bsp//libucosii_bsp.a(altera_nios2_gen2_irq.o)
 .debug_aranges
                0x0000000000000fe0       0x20 ../ucos2nios2_bsp//libucosii_bsp.a(os_cpu_a.o)
 .debug_aranges
                0x0000000000001000       0x20 ../ucos2nios2_bsp//libucosii_bsp.a(os_cpu_c.o)
 .debug_aranges
                0x0000000000001020       0x20 ../ucos2nios2_bsp//libucosii_bsp.a(alt_find_file.o)
 .debug_aranges
                0x0000000000001040       0x20 ../ucos2nios2_bsp//libucosii_bsp.a(alt_get_fd.o)
 .debug_aranges
                0x0000000000001060       0x20 ../ucos2nios2_bsp//libucosii_bsp.a(alt_icache_flush.o)
 .debug_aranges
                0x0000000000001080       0x30 ../ucos2nios2_bsp//libucosii_bsp.a(alt_irq_entry.o)
 .debug_aranges
                0x00000000000010b0       0x20 ../ucos2nios2_bsp//libucosii_bsp.a(alt_irq_handler.o)
 .debug_aranges
                0x00000000000010d0       0x38 ../ucos2nios2_bsp//libucosii_bsp.a(alt_exception_entry.o)
 .debug_aranges
                0x0000000000001108       0x28 ../ucos2nios2_bsp//libucosii_bsp.a(alt_instruction_exception_entry.o)
 .debug_aranges
                0x0000000000001130       0x20 /opt/intelFPGA/18.1/nios2eds/bin/gnu/H-x86_64-pc-linux-gnu/bin/../lib/gcc/nios2-elf/5.3.0/../../../../../H-x86_64-pc-linux-gnu/nios2-elf/lib/mhw-mulx/libc.a(lib_a-atexit.o)
 .debug_aranges
                0x0000000000001150       0x20 /opt/intelFPGA/18.1/nios2eds/bin/gnu/H-x86_64-pc-linux-gnu/bin/../lib/gcc/nios2-elf/5.3.0/../../../../../H-x86_64-pc-linux-gnu/nios2-elf/lib/mhw-mulx/libc.a(lib_a-exit.o)
 .debug_aranges
                0x0000000000001170       0x20 /opt/intelFPGA/18.1/nios2eds/bin/gnu/H-x86_64-pc-linux-gnu/bin/../lib/gcc/nios2-elf/5.3.0/../../../../../H-x86_64-pc-linux-gnu/nios2-elf/lib/mhw-mulx/libc.a(lib_a-memcmp.o)
 .debug_aranges
                0x0000000000001190       0x20 /opt/intelFPGA/18.1/nios2eds/bin/gnu/H-x86_64-pc-linux-gnu/bin/../lib/gcc/nios2-elf/5.3.0/../../../../../H-x86_64-pc-linux-gnu/nios2-elf/lib/mhw-mulx/libc.a(lib_a-__atexit.o)
 .debug_aranges
                0x00000000000011b0       0x20 /opt/intelFPGA/18.1/nios2eds/bin/gnu/H-x86_64-pc-linux-gnu/bin/../lib/gcc/nios2-elf/5.3.0/../../../../../H-x86_64-pc-linux-gnu/nios2-elf/lib/mhw-mulx/libc.a(lib_a-__call_atexit.o)
 .debug_aranges
                0x00000000000011d0       0x20 ../ucos2nios2_bsp//libucosii_bsp.a(alt_exit.o)

.debug_pubnames
 *(.debug_pubnames)

.debug_info     0x0000000000000000    0x3675b
 *(.debug_info .gnu.linkonce.wi.*)
 .debug_info    0x0000000000000000       0x8a ../ucos2nios2_bsp//obj/HAL/src/crt0.o
 .debug_info    0x000000000000008a      0xd61 obj/default/pong.o
 .debug_info    0x0000000000000deb      0x4fb obj/default/vga_stuff.o
 .debug_info    0x00000000000012e6      0x911 /opt/intelFPGA/18.1/nios2eds/bin/gnu/H-x86_64-pc-linux-gnu/bin/../lib/gcc/nios2-elf/5.3.0/../../../../../H-x86_64-pc-linux-gnu/nios2-elf/lib/mhw-mulx/libc.a(lib_a-malloc.o)
 .debug_info    0x0000000000001bf7      0xd57 /opt/intelFPGA/18.1/nios2eds/bin/gnu/H-x86_64-pc-linux-gnu/bin/../lib/gcc/nios2-elf/5.3.0/../../../../../H-x86_64-pc-linux-gnu/nios2-elf/lib/mhw-mulx/libc.a(lib_a-mallocr.o)
 .debug_info    0x000000000000294e      0x991 /opt/intelFPGA/18.1/nios2eds/bin/gnu/H-x86_64-pc-linux-gnu/bin/../lib/gcc/nios2-elf/5.3.0/../../../../../H-x86_64-pc-linux-gnu/nios2-elf/lib/mhw-mulx/libc.a(lib_a-printf.o)
 .debug_info    0x00000000000032df      0xa38 /opt/intelFPGA/18.1/nios2eds/bin/gnu/H-x86_64-pc-linux-gnu/bin/../lib/gcc/nios2-elf/5.3.0/../../../../../H-x86_64-pc-linux-gnu/nios2-elf/lib/mhw-mulx/libc.a(lib_a-puts.o)
 .debug_info    0x0000000000003d17      0x900 /opt/intelFPGA/18.1/nios2eds/bin/gnu/H-x86_64-pc-linux-gnu/bin/../lib/gcc/nios2-elf/5.3.0/../../../../../H-x86_64-pc-linux-gnu/nios2-elf/lib/mhw-mulx/libc.a(lib_a-sbrkr.o)
 .debug_info    0x0000000000004617      0xa6d /opt/intelFPGA/18.1/nios2eds/bin/gnu/H-x86_64-pc-linux-gnu/bin/../lib/gcc/nios2-elf/5.3.0/../../../../../H-x86_64-pc-linux-gnu/nios2-elf/lib/mhw-mulx/libc.a(lib_a-snprintf.o)
 .debug_info    0x0000000000005084      0x116 /opt/intelFPGA/18.1/nios2eds/bin/gnu/H-x86_64-pc-linux-gnu/bin/../lib/gcc/nios2-elf/5.3.0/../../../../../H-x86_64-pc-linux-gnu/nios2-elf/lib/mhw-mulx/libc.a(lib_a-strcat.o)
 .debug_info    0x000000000000519a      0x117 /opt/intelFPGA/18.1/nios2eds/bin/gnu/H-x86_64-pc-linux-gnu/bin/../lib/gcc/nios2-elf/5.3.0/../../../../../H-x86_64-pc-linux-gnu/nios2-elf/lib/mhw-mulx/libc.a(lib_a-strcpy.o)
 .debug_info    0x00000000000052b1       0xe2 /opt/intelFPGA/18.1/nios2eds/bin/gnu/H-x86_64-pc-linux-gnu/bin/../lib/gcc/nios2-elf/5.3.0/../../../../../H-x86_64-pc-linux-gnu/nios2-elf/lib/mhw-mulx/libc.a(lib_a-strlen.o)
 .debug_info    0x0000000000005393     0x14eb /opt/intelFPGA/18.1/nios2eds/bin/gnu/H-x86_64-pc-linux-gnu/bin/../lib/gcc/nios2-elf/5.3.0/../../../../../H-x86_64-pc-linux-gnu/nios2-elf/lib/mhw-mulx/libc.a(lib_a-svfprintf.o)
 .debug_info    0x000000000000687e     0x16b8 /opt/intelFPGA/18.1/nios2eds/bin/gnu/H-x86_64-pc-linux-gnu/bin/../lib/gcc/nios2-elf/5.3.0/../../../../../H-x86_64-pc-linux-gnu/nios2-elf/lib/mhw-mulx/libc.a(lib_a-vfprintf.o)
 .debug_info    0x0000000000007f36      0x936 /opt/intelFPGA/18.1/nios2eds/bin/gnu/H-x86_64-pc-linux-gnu/bin/../lib/gcc/nios2-elf/5.3.0/../../../../../H-x86_64-pc-linux-gnu/nios2-elf/lib/mhw-mulx/libc.a(lib_a-wsetup.o)
 .debug_info    0x000000000000886c     0x1247 /opt/intelFPGA/18.1/nios2eds/bin/gnu/H-x86_64-pc-linux-gnu/bin/../lib/gcc/nios2-elf/5.3.0/../../../../../H-x86_64-pc-linux-gnu/nios2-elf/lib/mhw-mulx/libc.a(lib_a-dtoa.o)
 .debug_info    0x0000000000009ab3      0xa93 /opt/intelFPGA/18.1/nios2eds/bin/gnu/H-x86_64-pc-linux-gnu/bin/../lib/gcc/nios2-elf/5.3.0/../../../../../H-x86_64-pc-linux-gnu/nios2-elf/lib/mhw-mulx/libc.a(lib_a-fflush.o)
 .debug_info    0x000000000000a546      0xd37 /opt/intelFPGA/18.1/nios2eds/bin/gnu/H-x86_64-pc-linux-gnu/bin/../lib/gcc/nios2-elf/5.3.0/../../../../../H-x86_64-pc-linux-gnu/nios2-elf/lib/mhw-mulx/libc.a(lib_a-findfp.o)
 .debug_info    0x000000000000b27d      0xbf7 /opt/intelFPGA/18.1/nios2eds/bin/gnu/H-x86_64-pc-linux-gnu/bin/../lib/gcc/nios2-elf/5.3.0/../../../../../H-x86_64-pc-linux-gnu/nios2-elf/lib/mhw-mulx/libc.a(lib_a-freer.o)
 .debug_info    0x000000000000be74      0xbb8 /opt/intelFPGA/18.1/nios2eds/bin/gnu/H-x86_64-pc-linux-gnu/bin/../lib/gcc/nios2-elf/5.3.0/../../../../../H-x86_64-pc-linux-gnu/nios2-elf/lib/mhw-mulx/libc.a(lib_a-fvwrite.o)
 .debug_info    0x000000000000ca2c      0x9b0 /opt/intelFPGA/18.1/nios2eds/bin/gnu/H-x86_64-pc-linux-gnu/bin/../lib/gcc/nios2-elf/5.3.0/../../../../../H-x86_64-pc-linux-gnu/nios2-elf/lib/mhw-mulx/libc.a(lib_a-fwalk.o)
 .debug_info    0x000000000000d3dc      0x8a1 /opt/intelFPGA/18.1/nios2eds/bin/gnu/H-x86_64-pc-linux-gnu/bin/../lib/gcc/nios2-elf/5.3.0/../../../../../H-x86_64-pc-linux-gnu/nios2-elf/lib/mhw-mulx/libc.a(lib_a-impure.o)
 .debug_info    0x000000000000dc7d       0x8a /opt/intelFPGA/18.1/nios2eds/bin/gnu/H-x86_64-pc-linux-gnu/bin/../lib/gcc/nios2-elf/5.3.0/../../../../../H-x86_64-pc-linux-gnu/nios2-elf/lib/mhw-mulx/libc.a(lib_a-int_errno.o)
 .debug_info    0x000000000000dd07      0xc25 /opt/intelFPGA/18.1/nios2eds/bin/gnu/H-x86_64-pc-linux-gnu/bin/../lib/gcc/nios2-elf/5.3.0/../../../../../H-x86_64-pc-linux-gnu/nios2-elf/lib/mhw-mulx/libc.a(lib_a-locale.o)
 .debug_info    0x000000000000e92c      0xad8 /opt/intelFPGA/18.1/nios2eds/bin/gnu/H-x86_64-pc-linux-gnu/bin/../lib/gcc/nios2-elf/5.3.0/../../../../../H-x86_64-pc-linux-gnu/nios2-elf/lib/mhw-mulx/libc.a(lib_a-makebuf.o)
 .debug_info    0x000000000000f404      0x132 /opt/intelFPGA/18.1/nios2eds/bin/gnu/H-x86_64-pc-linux-gnu/bin/../lib/gcc/nios2-elf/5.3.0/../../../../../H-x86_64-pc-linux-gnu/nios2-elf/lib/mhw-mulx/libc.a(lib_a-memchr.o)
 .debug_info    0x000000000000f536      0x144 /opt/intelFPGA/18.1/nios2eds/bin/gnu/H-x86_64-pc-linux-gnu/bin/../lib/gcc/nios2-elf/5.3.0/../../../../../H-x86_64-pc-linux-gnu/nios2-elf/lib/mhw-mulx/libc.a(lib_a-memcpy.o)
 .debug_info    0x000000000000f67a      0x13a /opt/intelFPGA/18.1/nios2eds/bin/gnu/H-x86_64-pc-linux-gnu/bin/../lib/gcc/nios2-elf/5.3.0/../../../../../H-x86_64-pc-linux-gnu/nios2-elf/lib/mhw-mulx/libc.a(lib_a-memmove.o)
 .debug_info    0x000000000000f7b4      0x121 /opt/intelFPGA/18.1/nios2eds/bin/gnu/H-x86_64-pc-linux-gnu/bin/../lib/gcc/nios2-elf/5.3.0/../../../../../H-x86_64-pc-linux-gnu/nios2-elf/lib/mhw-mulx/libc.a(lib_a-memset.o)
 .debug_info    0x000000000000f8d5     0x16b7 /opt/intelFPGA/18.1/nios2eds/bin/gnu/H-x86_64-pc-linux-gnu/bin/../lib/gcc/nios2-elf/5.3.0/../../../../../H-x86_64-pc-linux-gnu/nios2-elf/lib/mhw-mulx/libc.a(lib_a-mprec.o)
 .debug_info    0x0000000000010f8c      0xc6b /opt/intelFPGA/18.1/nios2eds/bin/gnu/H-x86_64-pc-linux-gnu/bin/../lib/gcc/nios2-elf/5.3.0/../../../../../H-x86_64-pc-linux-gnu/nios2-elf/lib/mhw-mulx/libc.a(lib_a-reallocr.o)
 .debug_info    0x0000000000011bf7       0xdc /opt/intelFPGA/18.1/nios2eds/bin/gnu/H-x86_64-pc-linux-gnu/bin/../lib/gcc/nios2-elf/5.3.0/../../../../../H-x86_64-pc-linux-gnu/nios2-elf/lib/mhw-mulx/libc.a(lib_a-s_fpclassify.o)
 .debug_info    0x0000000000011cd3      0xb32 /opt/intelFPGA/18.1/nios2eds/bin/gnu/H-x86_64-pc-linux-gnu/bin/../lib/gcc/nios2-elf/5.3.0/../../../../../H-x86_64-pc-linux-gnu/nios2-elf/lib/mhw-mulx/libc.a(lib_a-stdio.o)
 .debug_info    0x0000000000012805       0xe4 /opt/intelFPGA/18.1/nios2eds/bin/gnu/H-x86_64-pc-linux-gnu/bin/../lib/gcc/nios2-elf/5.3.0/../../../../../H-x86_64-pc-linux-gnu/nios2-elf/lib/mhw-mulx/libc.a(lib_a-strcmp.o)
 .debug_info    0x00000000000128e9      0xf8d /opt/intelFPGA/18.1/nios2eds/bin/gnu/H-x86_64-pc-linux-gnu/bin/../lib/gcc/nios2-elf/5.3.0/../../../../../H-x86_64-pc-linux-gnu/nios2-elf/lib/mhw-mulx/libc.a(lib_a-svfiprintf.o)
 .debug_info    0x0000000000013876     0x1535 /opt/intelFPGA/18.1/nios2eds/bin/gnu/H-x86_64-pc-linux-gnu/bin/../lib/gcc/nios2-elf/5.3.0/../../../../../H-x86_64-pc-linux-gnu/nios2-elf/lib/mhw-mulx/libc.a(lib_a-vfiprintf.o)
 .debug_info    0x0000000000014dab      0x928 /opt/intelFPGA/18.1/nios2eds/bin/gnu/H-x86_64-pc-linux-gnu/bin/../lib/gcc/nios2-elf/5.3.0/../../../../../H-x86_64-pc-linux-gnu/nios2-elf/lib/mhw-mulx/libc.a(lib_a-writer.o)
 .debug_info    0x00000000000156d3      0x8df /opt/intelFPGA/18.1/nios2eds/bin/gnu/H-x86_64-pc-linux-gnu/bin/../lib/gcc/nios2-elf/5.3.0/../../../../../H-x86_64-pc-linux-gnu/nios2-elf/lib/mhw-mulx/libc.a(closer.o)
 .debug_info    0x0000000000015fb2      0x9d5 /opt/intelFPGA/18.1/nios2eds/bin/gnu/H-x86_64-pc-linux-gnu/bin/../lib/gcc/nios2-elf/5.3.0/../../../../../H-x86_64-pc-linux-gnu/nios2-elf/lib/mhw-mulx/libc.a(lib_a-callocr.o)
 .debug_info    0x0000000000016987      0xa23 /opt/intelFPGA/18.1/nios2eds/bin/gnu/H-x86_64-pc-linux-gnu/bin/../lib/gcc/nios2-elf/5.3.0/../../../../../H-x86_64-pc-linux-gnu/nios2-elf/lib/mhw-mulx/libc.a(lib_a-fclose.o)
 .debug_info    0x00000000000173aa      0xad4 /opt/intelFPGA/18.1/nios2eds/bin/gnu/H-x86_64-pc-linux-gnu/bin/../lib/gcc/nios2-elf/5.3.0/../../../../../H-x86_64-pc-linux-gnu/nios2-elf/lib/mhw-mulx/libc.a(lib_a-fputwc.o)
 .debug_info    0x0000000000017e7e      0xa5d /opt/intelFPGA/18.1/nios2eds/bin/gnu/H-x86_64-pc-linux-gnu/bin/../lib/gcc/nios2-elf/5.3.0/../../../../../H-x86_64-pc-linux-gnu/nios2-elf/lib/mhw-mulx/libc.a(lib_a-fstatr.o)
 .debug_info    0x00000000000188db      0x8df /opt/intelFPGA/18.1/nios2eds/bin/gnu/H-x86_64-pc-linux-gnu/bin/../lib/gcc/nios2-elf/5.3.0/../../../../../H-x86_64-pc-linux-gnu/nios2-elf/lib/mhw-mulx/libc.a(lib_a-isattyr.o)
 .debug_info    0x00000000000191ba      0x90b /opt/intelFPGA/18.1/nios2eds/bin/gnu/H-x86_64-pc-linux-gnu/bin/../lib/gcc/nios2-elf/5.3.0/../../../../../H-x86_64-pc-linux-gnu/nios2-elf/lib/mhw-mulx/libc.a(lib_a-lseekr.o)
 .debug_info    0x0000000000019ac5      0x921 /opt/intelFPGA/18.1/nios2eds/bin/gnu/H-x86_64-pc-linux-gnu/bin/../lib/gcc/nios2-elf/5.3.0/../../../../../H-x86_64-pc-linux-gnu/nios2-elf/lib/mhw-mulx/libc.a(lib_a-readr.o)
 .debug_info    0x000000000001a3e6      0x9be /opt/intelFPGA/18.1/nios2eds/bin/gnu/H-x86_64-pc-linux-gnu/bin/../lib/gcc/nios2-elf/5.3.0/../../../../../H-x86_64-pc-linux-gnu/nios2-elf/lib/mhw-mulx/libc.a(lib_a-wbuf.o)
 .debug_info    0x000000000001ada4      0xa82 /opt/intelFPGA/18.1/nios2eds/bin/gnu/H-x86_64-pc-linux-gnu/bin/../lib/gcc/nios2-elf/5.3.0/../../../../../H-x86_64-pc-linux-gnu/nios2-elf/lib/mhw-mulx/libc.a(lib_a-wcrtomb.o)
 .debug_info    0x000000000001b826      0x9b1 /opt/intelFPGA/18.1/nios2eds/bin/gnu/H-x86_64-pc-linux-gnu/bin/../lib/gcc/nios2-elf/5.3.0/../../../../../H-x86_64-pc-linux-gnu/nios2-elf/lib/mhw-mulx/libc.a(lib_a-wctomb_r.o)
 .debug_info    0x000000000001c1d7      0x70e /opt/intelFPGA/18.1/nios2eds/bin/gnu/H-x86_64-pc-linux-gnu/bin/../lib/gcc/nios2-elf/5.3.0/mhw-mulx/libgcc.a(_udivdi3.o)
 .debug_info    0x000000000001c8e5      0x765 /opt/intelFPGA/18.1/nios2eds/bin/gnu/H-x86_64-pc-linux-gnu/bin/../lib/gcc/nios2-elf/5.3.0/mhw-mulx/libgcc.a(_umoddi3.o)
 .debug_info    0x000000000001d04a      0x2c6 /opt/intelFPGA/18.1/nios2eds/bin/gnu/H-x86_64-pc-linux-gnu/bin/../lib/gcc/nios2-elf/5.3.0/mhw-mulx/libgcc.a(lib2-divmod.o)
 .debug_info    0x000000000001d310      0x4a2 /opt/intelFPGA/18.1/nios2eds/bin/gnu/H-x86_64-pc-linux-gnu/bin/../lib/gcc/nios2-elf/5.3.0/mhw-mulx/libgcc.a(adddf3.o)
 .debug_info    0x000000000001d7b2      0x5c7 /opt/intelFPGA/18.1/nios2eds/bin/gnu/H-x86_64-pc-linux-gnu/bin/../lib/gcc/nios2-elf/5.3.0/mhw-mulx/libgcc.a(divdf3.o)
 .debug_info    0x000000000001dd79      0x1e2 /opt/intelFPGA/18.1/nios2eds/bin/gnu/H-x86_64-pc-linux-gnu/bin/../lib/gcc/nios2-elf/5.3.0/mhw-mulx/libgcc.a(eqdf2.o)
 .debug_info    0x000000000001df5b      0x202 /opt/intelFPGA/18.1/nios2eds/bin/gnu/H-x86_64-pc-linux-gnu/bin/../lib/gcc/nios2-elf/5.3.0/mhw-mulx/libgcc.a(gedf2.o)
 .debug_info    0x000000000001e15d      0x204 /opt/intelFPGA/18.1/nios2eds/bin/gnu/H-x86_64-pc-linux-gnu/bin/../lib/gcc/nios2-elf/5.3.0/mhw-mulx/libgcc.a(ledf2.o)
 .debug_info    0x000000000001e361      0x5f5 /opt/intelFPGA/18.1/nios2eds/bin/gnu/H-x86_64-pc-linux-gnu/bin/../lib/gcc/nios2-elf/5.3.0/mhw-mulx/libgcc.a(muldf3.o)
 .debug_info    0x000000000001e956      0x4a2 /opt/intelFPGA/18.1/nios2eds/bin/gnu/H-x86_64-pc-linux-gnu/bin/../lib/gcc/nios2-elf/5.3.0/mhw-mulx/libgcc.a(subdf3.o)
 .debug_info    0x000000000001edf8      0x1ae /opt/intelFPGA/18.1/nios2eds/bin/gnu/H-x86_64-pc-linux-gnu/bin/../lib/gcc/nios2-elf/5.3.0/mhw-mulx/libgcc.a(fixdfsi.o)
 .debug_info    0x000000000001efa6      0x1bc /opt/intelFPGA/18.1/nios2eds/bin/gnu/H-x86_64-pc-linux-gnu/bin/../lib/gcc/nios2-elf/5.3.0/mhw-mulx/libgcc.a(floatsidf.o)
 .debug_info    0x000000000001f162      0x1b0 /opt/intelFPGA/18.1/nios2eds/bin/gnu/H-x86_64-pc-linux-gnu/bin/../lib/gcc/nios2-elf/5.3.0/mhw-mulx/libgcc.a(floatunsidf.o)
 .debug_info    0x000000000001f312       0xb2 /opt/intelFPGA/18.1/nios2eds/bin/gnu/H-x86_64-pc-linux-gnu/bin/../lib/gcc/nios2-elf/5.3.0/mhw-mulx/libgcc.a(_clz.o)
 .debug_info    0x000000000001f3c4      0x124 /opt/intelFPGA/18.1/nios2eds/bin/gnu/H-x86_64-pc-linux-gnu/bin/../lib/gcc/nios2-elf/5.3.0/mhw-mulx/libgcc.a(_clzsi2.o)
 .debug_info    0x000000000001f4e8      0x36b ../ucos2nios2_bsp//libucosii_bsp.a(alt_close.o)
 .debug_info    0x000000000001f853      0x59b ../ucos2nios2_bsp//libucosii_bsp.a(alt_dev.o)
 .debug_info    0x000000000001fdee       0xa6 ../ucos2nios2_bsp//libucosii_bsp.a(alt_errno.o)
 .debug_info    0x000000000001fe94      0x4d2 ../ucos2nios2_bsp//libucosii_bsp.a(alt_fstat.o)
 .debug_info    0x0000000000020366      0x4d5 ../ucos2nios2_bsp//libucosii_bsp.a(alt_isatty.o)
 .debug_info    0x000000000002083b      0x145 ../ucos2nios2_bsp//libucosii_bsp.a(alt_load.o)
 .debug_info    0x0000000000020980      0x39c ../ucos2nios2_bsp//libucosii_bsp.a(alt_lseek.o)
 .debug_info    0x0000000000020d1c      0x283 ../ucos2nios2_bsp//libucosii_bsp.a(alt_main.o)
 .debug_info    0x0000000000020f9f      0x4fa ../ucos2nios2_bsp//libucosii_bsp.a(alt_read.o)
 .debug_info    0x0000000000021499      0x30f ../ucos2nios2_bsp//libucosii_bsp.a(alt_release_fd.o)
 .debug_info    0x00000000000217a8      0x1d2 ../ucos2nios2_bsp//libucosii_bsp.a(alt_sbrk.o)
 .debug_info    0x000000000002197a      0x501 ../ucos2nios2_bsp//libucosii_bsp.a(alt_write.o)
 .debug_info    0x0000000000021e7b      0xc7d ../ucos2nios2_bsp//libucosii_bsp.a(alt_env_lock.o)
 .debug_info    0x0000000000022af8      0xdc3 ../ucos2nios2_bsp//libucosii_bsp.a(alt_malloc_lock.o)
 .debug_info    0x00000000000238bb     0x15cf ../ucos2nios2_bsp//libucosii_bsp.a(os_core.o)
 .debug_info    0x0000000000024e8a      0xabe ../ucos2nios2_bsp//libucosii_bsp.a(os_dbg.o)
 .debug_info    0x0000000000025948      0xfb2 ../ucos2nios2_bsp//libucosii_bsp.a(os_flag.o)
 .debug_info    0x00000000000268fa      0xa7a ../ucos2nios2_bsp//libucosii_bsp.a(os_mbox.o)
 .debug_info    0x0000000000027374      0x690 ../ucos2nios2_bsp//libucosii_bsp.a(os_mem.o)
 .debug_info    0x0000000000027a04      0xdb9 ../ucos2nios2_bsp//libucosii_bsp.a(os_q.o)
 .debug_info    0x00000000000287bd      0xa1a ../ucos2nios2_bsp//libucosii_bsp.a(os_sem.o)
 .debug_info    0x00000000000291d7     0x112d ../ucos2nios2_bsp//libucosii_bsp.a(os_task.o)
 .debug_info    0x000000000002a304      0x6ff ../ucos2nios2_bsp//libucosii_bsp.a(os_time.o)
 .debug_info    0x000000000002aa03      0xb40 ../ucos2nios2_bsp//libucosii_bsp.a(alt_sys_init.o)
 .debug_info    0x000000000002b543     0x17e2 ../ucos2nios2_bsp//libucosii_bsp.a(Altera_UP_SD_Card_Avalon_Interface.o)
 .debug_info    0x000000000002cd25      0x691 ../ucos2nios2_bsp//libucosii_bsp.a(altera_avalon_jtag_uart_fd.o)
 .debug_info    0x000000000002d3b6      0x6d6 ../ucos2nios2_bsp//libucosii_bsp.a(altera_avalon_jtag_uart_init.o)
 .debug_info    0x000000000002da8c      0x3e3 ../ucos2nios2_bsp//libucosii_bsp.a(altera_avalon_jtag_uart_ioctl.o)
 .debug_info    0x000000000002de6f      0x590 ../ucos2nios2_bsp//libucosii_bsp.a(altera_avalon_jtag_uart_read.o)
 .debug_info    0x000000000002e3ff      0x58f ../ucos2nios2_bsp//libucosii_bsp.a(altera_avalon_jtag_uart_write.o)
 .debug_info    0x000000000002e98e      0x249 ../ucos2nios2_bsp//libucosii_bsp.a(altera_avalon_timer_sc.o)
 .debug_info    0x000000000002ebd7      0x7e0 ../ucos2nios2_bsp//libucosii_bsp.a(altera_up_avalon_audio.o)
 .debug_info    0x000000000002f3b7      0x625 ../ucos2nios2_bsp//libucosii_bsp.a(altera_up_avalon_character_lcd.o)
 .debug_info    0x000000000002f9dc      0x5a7 ../ucos2nios2_bsp//libucosii_bsp.a(altera_up_avalon_irda.o)
 .debug_info    0x000000000002ff83      0x813 ../ucos2nios2_bsp//libucosii_bsp.a(altera_up_avalon_ps2.o)
 .debug_info    0x0000000000030796      0x5a7 ../ucos2nios2_bsp//libucosii_bsp.a(altera_up_avalon_rs232.o)
 .debug_info    0x0000000000030d3d      0x640 ../ucos2nios2_bsp//libucosii_bsp.a(altera_up_ps2_keyboard.o)
 .debug_info    0x000000000003137d      0x2e2 ../ucos2nios2_bsp//libucosii_bsp.a(alt_alarm_start.o)
 .debug_info    0x000000000003165f       0x92 ../ucos2nios2_bsp//libucosii_bsp.a(alt_dcache_flush_all.o)
 .debug_info    0x00000000000316f1      0x1a9 ../ucos2nios2_bsp//libucosii_bsp.a(alt_dev_llist_insert.o)
 .debug_info    0x000000000003189a       0x83 ../ucos2nios2_bsp//libucosii_bsp.a(alt_do_ctors.o)
 .debug_info    0x000000000003191d       0x83 ../ucos2nios2_bsp//libucosii_bsp.a(alt_do_dtors.o)
 .debug_info    0x00000000000319a0      0x333 ../ucos2nios2_bsp//libucosii_bsp.a(alt_find_dev.o)
 .debug_info    0x0000000000031cd3       0x92 ../ucos2nios2_bsp//libucosii_bsp.a(alt_icache_flush_all.o)
 .debug_info    0x0000000000031d65      0x4ef ../ucos2nios2_bsp//libucosii_bsp.a(alt_io_redirect.o)
 .debug_info    0x0000000000032254      0x34d ../ucos2nios2_bsp//libucosii_bsp.a(alt_irq_register.o)
 .debug_info    0x00000000000325a1       0x88 ../ucos2nios2_bsp//libucosii_bsp.a(alt_irq_vars.o)
 .debug_info    0x0000000000032629      0x3fa ../ucos2nios2_bsp//libucosii_bsp.a(alt_open.o)
 .debug_info    0x0000000000032a23      0x2bd ../ucos2nios2_bsp//libucosii_bsp.a(alt_tick.o)
 .debug_info    0x0000000000032ce0       0xb8 ../ucos2nios2_bsp//libucosii_bsp.a(altera_nios2_gen2_irq.o)
 .debug_info    0x0000000000032d98       0x92 ../ucos2nios2_bsp//libucosii_bsp.a(os_cpu_a.o)
 .debug_info    0x0000000000032e2a      0xd00 ../ucos2nios2_bsp//libucosii_bsp.a(os_cpu_c.o)
 .debug_info    0x0000000000033b2a      0x330 ../ucos2nios2_bsp//libucosii_bsp.a(alt_find_file.o)
 .debug_info    0x0000000000033e5a      0x461 ../ucos2nios2_bsp//libucosii_bsp.a(alt_get_fd.o)
 .debug_info    0x00000000000342bb       0xdc ../ucos2nios2_bsp//libucosii_bsp.a(alt_icache_flush.o)
 .debug_info    0x0000000000034397       0x93 ../ucos2nios2_bsp//libucosii_bsp.a(alt_irq_entry.o)
 .debug_info    0x000000000003442a      0x1cb ../ucos2nios2_bsp//libucosii_bsp.a(alt_irq_handler.o)
 .debug_info    0x00000000000345f5       0x99 ../ucos2nios2_bsp//libucosii_bsp.a(alt_exception_entry.o)
 .debug_info    0x000000000003468e      0x1e7 ../ucos2nios2_bsp//libucosii_bsp.a(alt_instruction_exception_entry.o)
 .debug_info    0x0000000000034875       0xfe /opt/intelFPGA/18.1/nios2eds/bin/gnu/H-x86_64-pc-linux-gnu/bin/../lib/gcc/nios2-elf/5.3.0/../../../../../H-x86_64-pc-linux-gnu/nios2-elf/lib/mhw-mulx/libc.a(lib_a-atexit.o)
 .debug_info    0x0000000000034973      0x8e4 /opt/intelFPGA/18.1/nios2eds/bin/gnu/H-x86_64-pc-linux-gnu/bin/../lib/gcc/nios2-elf/5.3.0/../../../../../H-x86_64-pc-linux-gnu/nios2-elf/lib/mhw-mulx/libc.a(lib_a-exit.o)
 .debug_info    0x0000000000035257      0x11a /opt/intelFPGA/18.1/nios2eds/bin/gnu/H-x86_64-pc-linux-gnu/bin/../lib/gcc/nios2-elf/5.3.0/../../../../../H-x86_64-pc-linux-gnu/nios2-elf/lib/mhw-mulx/libc.a(lib_a-memcmp.o)
 .debug_info    0x0000000000035371      0x934 /opt/intelFPGA/18.1/nios2eds/bin/gnu/H-x86_64-pc-linux-gnu/bin/../lib/gcc/nios2-elf/5.3.0/../../../../../H-x86_64-pc-linux-gnu/nios2-elf/lib/mhw-mulx/libc.a(lib_a-__atexit.o)
 .debug_info    0x0000000000035ca5      0x965 /opt/intelFPGA/18.1/nios2eds/bin/gnu/H-x86_64-pc-linux-gnu/bin/../lib/gcc/nios2-elf/5.3.0/../../../../../H-x86_64-pc-linux-gnu/nios2-elf/lib/mhw-mulx/libc.a(lib_a-__call_atexit.o)
 .debug_info    0x000000000003660a      0x151 ../ucos2nios2_bsp//libucosii_bsp.a(alt_exit.o)

.debug_abbrev   0x0000000000000000     0xc41b
 *(.debug_abbrev)
 .debug_abbrev  0x0000000000000000       0x12 ../ucos2nios2_bsp//obj/HAL/src/crt0.o
 .debug_abbrev  0x0000000000000012      0x27f obj/default/pong.o
 .debug_abbrev  0x0000000000000291      0x10c obj/default/vga_stuff.o
 .debug_abbrev  0x000000000000039d      0x1f4 /opt/intelFPGA/18.1/nios2eds/bin/gnu/H-x86_64-pc-linux-gnu/bin/../lib/gcc/nios2-elf/5.3.0/../../../../../H-x86_64-pc-linux-gnu/nios2-elf/lib/mhw-mulx/libc.a(lib_a-malloc.o)
 .debug_abbrev  0x0000000000000591      0x29d /opt/intelFPGA/18.1/nios2eds/bin/gnu/H-x86_64-pc-linux-gnu/bin/../lib/gcc/nios2-elf/5.3.0/../../../../../H-x86_64-pc-linux-gnu/nios2-elf/lib/mhw-mulx/libc.a(lib_a-mallocr.o)
 .debug_abbrev  0x000000000000082e      0x233 /opt/intelFPGA/18.1/nios2eds/bin/gnu/H-x86_64-pc-linux-gnu/bin/../lib/gcc/nios2-elf/5.3.0/../../../../../H-x86_64-pc-linux-gnu/nios2-elf/lib/mhw-mulx/libc.a(lib_a-printf.o)
 .debug_abbrev  0x0000000000000a61      0x249 /opt/intelFPGA/18.1/nios2eds/bin/gnu/H-x86_64-pc-linux-gnu/bin/../lib/gcc/nios2-elf/5.3.0/../../../../../H-x86_64-pc-linux-gnu/nios2-elf/lib/mhw-mulx/libc.a(lib_a-puts.o)
 .debug_abbrev  0x0000000000000caa      0x20a /opt/intelFPGA/18.1/nios2eds/bin/gnu/H-x86_64-pc-linux-gnu/bin/../lib/gcc/nios2-elf/5.3.0/../../../../../H-x86_64-pc-linux-gnu/nios2-elf/lib/mhw-mulx/libc.a(lib_a-sbrkr.o)
 .debug_abbrev  0x0000000000000eb4      0x239 /opt/intelFPGA/18.1/nios2eds/bin/gnu/H-x86_64-pc-linux-gnu/bin/../lib/gcc/nios2-elf/5.3.0/../../../../../H-x86_64-pc-linux-gnu/nios2-elf/lib/mhw-mulx/libc.a(lib_a-snprintf.o)
 .debug_abbrev  0x00000000000010ed       0xb1 /opt/intelFPGA/18.1/nios2eds/bin/gnu/H-x86_64-pc-linux-gnu/bin/../lib/gcc/nios2-elf/5.3.0/../../../../../H-x86_64-pc-linux-gnu/nios2-elf/lib/mhw-mulx/libc.a(lib_a-strcat.o)
 .debug_abbrev  0x000000000000119e       0x83 /opt/intelFPGA/18.1/nios2eds/bin/gnu/H-x86_64-pc-linux-gnu/bin/../lib/gcc/nios2-elf/5.3.0/../../../../../H-x86_64-pc-linux-gnu/nios2-elf/lib/mhw-mulx/libc.a(lib_a-strcpy.o)
 .debug_abbrev  0x0000000000001221       0x90 /opt/intelFPGA/18.1/nios2eds/bin/gnu/H-x86_64-pc-linux-gnu/bin/../lib/gcc/nios2-elf/5.3.0/../../../../../H-x86_64-pc-linux-gnu/nios2-elf/lib/mhw-mulx/libc.a(lib_a-strlen.o)
 .debug_abbrev  0x00000000000012b1      0x361 /opt/intelFPGA/18.1/nios2eds/bin/gnu/H-x86_64-pc-linux-gnu/bin/../lib/gcc/nios2-elf/5.3.0/../../../../../H-x86_64-pc-linux-gnu/nios2-elf/lib/mhw-mulx/libc.a(lib_a-svfprintf.o)
 .debug_abbrev  0x0000000000001612      0x3bf /opt/intelFPGA/18.1/nios2eds/bin/gnu/H-x86_64-pc-linux-gnu/bin/../lib/gcc/nios2-elf/5.3.0/../../../../../H-x86_64-pc-linux-gnu/nios2-elf/lib/mhw-mulx/libc.a(lib_a-vfprintf.o)
 .debug_abbrev  0x00000000000019d1      0x218 /opt/intelFPGA/18.1/nios2eds/bin/gnu/H-x86_64-pc-linux-gnu/bin/../lib/gcc/nios2-elf/5.3.0/../../../../../H-x86_64-pc-linux-gnu/nios2-elf/lib/mhw-mulx/libc.a(lib_a-wsetup.o)
 .debug_abbrev  0x0000000000001be9      0x2b8 /opt/intelFPGA/18.1/nios2eds/bin/gnu/H-x86_64-pc-linux-gnu/bin/../lib/gcc/nios2-elf/5.3.0/../../../../../H-x86_64-pc-linux-gnu/nios2-elf/lib/mhw-mulx/libc.a(lib_a-dtoa.o)
 .debug_abbrev  0x0000000000001ea1      0x2a0 /opt/intelFPGA/18.1/nios2eds/bin/gnu/H-x86_64-pc-linux-gnu/bin/../lib/gcc/nios2-elf/5.3.0/../../../../../H-x86_64-pc-linux-gnu/nios2-elf/lib/mhw-mulx/libc.a(lib_a-fflush.o)
 .debug_abbrev  0x0000000000002141      0x391 /opt/intelFPGA/18.1/nios2eds/bin/gnu/H-x86_64-pc-linux-gnu/bin/../lib/gcc/nios2-elf/5.3.0/../../../../../H-x86_64-pc-linux-gnu/nios2-elf/lib/mhw-mulx/libc.a(lib_a-findfp.o)
 .debug_abbrev  0x00000000000024d2      0x264 /opt/intelFPGA/18.1/nios2eds/bin/gnu/H-x86_64-pc-linux-gnu/bin/../lib/gcc/nios2-elf/5.3.0/../../../../../H-x86_64-pc-linux-gnu/nios2-elf/lib/mhw-mulx/libc.a(lib_a-freer.o)
 .debug_abbrev  0x0000000000002736      0x228 /opt/intelFPGA/18.1/nios2eds/bin/gnu/H-x86_64-pc-linux-gnu/bin/../lib/gcc/nios2-elf/5.3.0/../../../../../H-x86_64-pc-linux-gnu/nios2-elf/lib/mhw-mulx/libc.a(lib_a-fvwrite.o)
 .debug_abbrev  0x000000000000295e      0x1d1 /opt/intelFPGA/18.1/nios2eds/bin/gnu/H-x86_64-pc-linux-gnu/bin/../lib/gcc/nios2-elf/5.3.0/../../../../../H-x86_64-pc-linux-gnu/nios2-elf/lib/mhw-mulx/libc.a(lib_a-fwalk.o)
 .debug_abbrev  0x0000000000002b2f      0x18f /opt/intelFPGA/18.1/nios2eds/bin/gnu/H-x86_64-pc-linux-gnu/bin/../lib/gcc/nios2-elf/5.3.0/../../../../../H-x86_64-pc-linux-gnu/nios2-elf/lib/mhw-mulx/libc.a(lib_a-impure.o)
 .debug_abbrev  0x0000000000002cbe       0x37 /opt/intelFPGA/18.1/nios2eds/bin/gnu/H-x86_64-pc-linux-gnu/bin/../lib/gcc/nios2-elf/5.3.0/../../../../../H-x86_64-pc-linux-gnu/nios2-elf/lib/mhw-mulx/libc.a(lib_a-int_errno.o)
 .debug_abbrev  0x0000000000002cf5      0x2c0 /opt/intelFPGA/18.1/nios2eds/bin/gnu/H-x86_64-pc-linux-gnu/bin/../lib/gcc/nios2-elf/5.3.0/../../../../../H-x86_64-pc-linux-gnu/nios2-elf/lib/mhw-mulx/libc.a(lib_a-locale.o)
 .debug_abbrev  0x0000000000002fb5      0x20f /opt/intelFPGA/18.1/nios2eds/bin/gnu/H-x86_64-pc-linux-gnu/bin/../lib/gcc/nios2-elf/5.3.0/../../../../../H-x86_64-pc-linux-gnu/nios2-elf/lib/mhw-mulx/libc.a(lib_a-makebuf.o)
 .debug_abbrev  0x00000000000031c4       0xab /opt/intelFPGA/18.1/nios2eds/bin/gnu/H-x86_64-pc-linux-gnu/bin/../lib/gcc/nios2-elf/5.3.0/../../../../../H-x86_64-pc-linux-gnu/nios2-elf/lib/mhw-mulx/libc.a(lib_a-memchr.o)
 .debug_abbrev  0x000000000000326f       0xa3 /opt/intelFPGA/18.1/nios2eds/bin/gnu/H-x86_64-pc-linux-gnu/bin/../lib/gcc/nios2-elf/5.3.0/../../../../../H-x86_64-pc-linux-gnu/nios2-elf/lib/mhw-mulx/libc.a(lib_a-memcpy.o)
 .debug_abbrev  0x0000000000003312       0x9c /opt/intelFPGA/18.1/nios2eds/bin/gnu/H-x86_64-pc-linux-gnu/bin/../lib/gcc/nios2-elf/5.3.0/../../../../../H-x86_64-pc-linux-gnu/nios2-elf/lib/mhw-mulx/libc.a(lib_a-memmove.o)
 .debug_abbrev  0x00000000000033ae       0xae /opt/intelFPGA/18.1/nios2eds/bin/gnu/H-x86_64-pc-linux-gnu/bin/../lib/gcc/nios2-elf/5.3.0/../../../../../H-x86_64-pc-linux-gnu/nios2-elf/lib/mhw-mulx/libc.a(lib_a-memset.o)
 .debug_abbrev  0x000000000000345c      0x3d7 /opt/intelFPGA/18.1/nios2eds/bin/gnu/H-x86_64-pc-linux-gnu/bin/../lib/gcc/nios2-elf/5.3.0/../../../../../H-x86_64-pc-linux-gnu/nios2-elf/lib/mhw-mulx/libc.a(lib_a-mprec.o)
 .debug_abbrev  0x0000000000003833      0x231 /opt/intelFPGA/18.1/nios2eds/bin/gnu/H-x86_64-pc-linux-gnu/bin/../lib/gcc/nios2-elf/5.3.0/../../../../../H-x86_64-pc-linux-gnu/nios2-elf/lib/mhw-mulx/libc.a(lib_a-reallocr.o)
 .debug_abbrev  0x0000000000003a64       0x7e /opt/intelFPGA/18.1/nios2eds/bin/gnu/H-x86_64-pc-linux-gnu/bin/../lib/gcc/nios2-elf/5.3.0/../../../../../H-x86_64-pc-linux-gnu/nios2-elf/lib/mhw-mulx/libc.a(lib_a-s_fpclassify.o)
 .debug_abbrev  0x0000000000003ae2      0x239 /opt/intelFPGA/18.1/nios2eds/bin/gnu/H-x86_64-pc-linux-gnu/bin/../lib/gcc/nios2-elf/5.3.0/../../../../../H-x86_64-pc-linux-gnu/nios2-elf/lib/mhw-mulx/libc.a(lib_a-stdio.o)
 .debug_abbrev  0x0000000000003d1b       0x74 /opt/intelFPGA/18.1/nios2eds/bin/gnu/H-x86_64-pc-linux-gnu/bin/../lib/gcc/nios2-elf/5.3.0/../../../../../H-x86_64-pc-linux-gnu/nios2-elf/lib/mhw-mulx/libc.a(lib_a-strcmp.o)
 .debug_abbrev  0x0000000000003d8f      0x2ae /opt/intelFPGA/18.1/nios2eds/bin/gnu/H-x86_64-pc-linux-gnu/bin/../lib/gcc/nios2-elf/5.3.0/../../../../../H-x86_64-pc-linux-gnu/nios2-elf/lib/mhw-mulx/libc.a(lib_a-svfiprintf.o)
 .debug_abbrev  0x000000000000403d      0x3ce /opt/intelFPGA/18.1/nios2eds/bin/gnu/H-x86_64-pc-linux-gnu/bin/../lib/gcc/nios2-elf/5.3.0/../../../../../H-x86_64-pc-linux-gnu/nios2-elf/lib/mhw-mulx/libc.a(lib_a-vfiprintf.o)
 .debug_abbrev  0x000000000000440b      0x1eb /opt/intelFPGA/18.1/nios2eds/bin/gnu/H-x86_64-pc-linux-gnu/bin/../lib/gcc/nios2-elf/5.3.0/../../../../../H-x86_64-pc-linux-gnu/nios2-elf/lib/mhw-mulx/libc.a(lib_a-writer.o)
 .debug_abbrev  0x00000000000045f6      0x1e6 /opt/intelFPGA/18.1/nios2eds/bin/gnu/H-x86_64-pc-linux-gnu/bin/../lib/gcc/nios2-elf/5.3.0/../../../../../H-x86_64-pc-linux-gnu/nios2-elf/lib/mhw-mulx/libc.a(closer.o)
 .debug_abbrev  0x00000000000047dc      0x209 /opt/intelFPGA/18.1/nios2eds/bin/gnu/H-x86_64-pc-linux-gnu/bin/../lib/gcc/nios2-elf/5.3.0/../../../../../H-x86_64-pc-linux-gnu/nios2-elf/lib/mhw-mulx/libc.a(lib_a-callocr.o)
 .debug_abbrev  0x00000000000049e5      0x2a2 /opt/intelFPGA/18.1/nios2eds/bin/gnu/H-x86_64-pc-linux-gnu/bin/../lib/gcc/nios2-elf/5.3.0/../../../../../H-x86_64-pc-linux-gnu/nios2-elf/lib/mhw-mulx/libc.a(lib_a-fclose.o)
 .debug_abbrev  0x0000000000004c87      0x2b9 /opt/intelFPGA/18.1/nios2eds/bin/gnu/H-x86_64-pc-linux-gnu/bin/../lib/gcc/nios2-elf/5.3.0/../../../../../H-x86_64-pc-linux-gnu/nios2-elf/lib/mhw-mulx/libc.a(lib_a-fputwc.o)
 .debug_abbrev  0x0000000000004f40      0x1f5 /opt/intelFPGA/18.1/nios2eds/bin/gnu/H-x86_64-pc-linux-gnu/bin/../lib/gcc/nios2-elf/5.3.0/../../../../../H-x86_64-pc-linux-gnu/nios2-elf/lib/mhw-mulx/libc.a(lib_a-fstatr.o)
 .debug_abbrev  0x0000000000005135      0x1e6 /opt/intelFPGA/18.1/nios2eds/bin/gnu/H-x86_64-pc-linux-gnu/bin/../lib/gcc/nios2-elf/5.3.0/../../../../../H-x86_64-pc-linux-gnu/nios2-elf/lib/mhw-mulx/libc.a(lib_a-isattyr.o)
 .debug_abbrev  0x000000000000531b      0x1f5 /opt/intelFPGA/18.1/nios2eds/bin/gnu/H-x86_64-pc-linux-gnu/bin/../lib/gcc/nios2-elf/5.3.0/../../../../../H-x86_64-pc-linux-gnu/nios2-elf/lib/mhw-mulx/libc.a(lib_a-lseekr.o)
 .debug_abbrev  0x0000000000005510      0x1e6 /opt/intelFPGA/18.1/nios2eds/bin/gnu/H-x86_64-pc-linux-gnu/bin/../lib/gcc/nios2-elf/5.3.0/../../../../../H-x86_64-pc-linux-gnu/nios2-elf/lib/mhw-mulx/libc.a(lib_a-readr.o)
 .debug_abbrev  0x00000000000056f6      0x251 /opt/intelFPGA/18.1/nios2eds/bin/gnu/H-x86_64-pc-linux-gnu/bin/../lib/gcc/nios2-elf/5.3.0/../../../../../H-x86_64-pc-linux-gnu/nios2-elf/lib/mhw-mulx/libc.a(lib_a-wbuf.o)
 .debug_abbrev  0x0000000000005947      0x230 /opt/intelFPGA/18.1/nios2eds/bin/gnu/H-x86_64-pc-linux-gnu/bin/../lib/gcc/nios2-elf/5.3.0/../../../../../H-x86_64-pc-linux-gnu/nios2-elf/lib/mhw-mulx/libc.a(lib_a-wcrtomb.o)
 .debug_abbrev  0x0000000000005b77      0x21f /opt/intelFPGA/18.1/nios2eds/bin/gnu/H-x86_64-pc-linux-gnu/bin/../lib/gcc/nios2-elf/5.3.0/../../../../../H-x86_64-pc-linux-gnu/nios2-elf/lib/mhw-mulx/libc.a(lib_a-wctomb_r.o)
 .debug_abbrev  0x0000000000005d96      0x167 /opt/intelFPGA/18.1/nios2eds/bin/gnu/H-x86_64-pc-linux-gnu/bin/../lib/gcc/nios2-elf/5.3.0/mhw-mulx/libgcc.a(_udivdi3.o)
 .debug_abbrev  0x0000000000005efd      0x18a /opt/intelFPGA/18.1/nios2eds/bin/gnu/H-x86_64-pc-linux-gnu/bin/../lib/gcc/nios2-elf/5.3.0/mhw-mulx/libgcc.a(_umoddi3.o)
 .debug_abbrev  0x0000000000006087      0x10e /opt/intelFPGA/18.1/nios2eds/bin/gnu/H-x86_64-pc-linux-gnu/bin/../lib/gcc/nios2-elf/5.3.0/mhw-mulx/libgcc.a(lib2-divmod.o)
 .debug_abbrev  0x0000000000006195      0x13a /opt/intelFPGA/18.1/nios2eds/bin/gnu/H-x86_64-pc-linux-gnu/bin/../lib/gcc/nios2-elf/5.3.0/mhw-mulx/libgcc.a(adddf3.o)
 .debug_abbrev  0x00000000000062cf      0x12d /opt/intelFPGA/18.1/nios2eds/bin/gnu/H-x86_64-pc-linux-gnu/bin/../lib/gcc/nios2-elf/5.3.0/mhw-mulx/libgcc.a(divdf3.o)
 .debug_abbrev  0x00000000000063fc      0x128 /opt/intelFPGA/18.1/nios2eds/bin/gnu/H-x86_64-pc-linux-gnu/bin/../lib/gcc/nios2-elf/5.3.0/mhw-mulx/libgcc.a(eqdf2.o)
 .debug_abbrev  0x0000000000006524      0x137 /opt/intelFPGA/18.1/nios2eds/bin/gnu/H-x86_64-pc-linux-gnu/bin/../lib/gcc/nios2-elf/5.3.0/mhw-mulx/libgcc.a(gedf2.o)
 .debug_abbrev  0x000000000000665b      0x137 /opt/intelFPGA/18.1/nios2eds/bin/gnu/H-x86_64-pc-linux-gnu/bin/../lib/gcc/nios2-elf/5.3.0/mhw-mulx/libgcc.a(ledf2.o)
 .debug_abbrev  0x0000000000006792      0x13f /opt/intelFPGA/18.1/nios2eds/bin/gnu/H-x86_64-pc-linux-gnu/bin/../lib/gcc/nios2-elf/5.3.0/mhw-mulx/libgcc.a(muldf3.o)
 .debug_abbrev  0x00000000000068d1      0x133 /opt/intelFPGA/18.1/nios2eds/bin/gnu/H-x86_64-pc-linux-gnu/bin/../lib/gcc/nios2-elf/5.3.0/mhw-mulx/libgcc.a(subdf3.o)
 .debug_abbrev  0x0000000000006a04      0x135 /opt/intelFPGA/18.1/nios2eds/bin/gnu/H-x86_64-pc-linux-gnu/bin/../lib/gcc/nios2-elf/5.3.0/mhw-mulx/libgcc.a(fixdfsi.o)
 .debug_abbrev  0x0000000000006b39      0x124 /opt/intelFPGA/18.1/nios2eds/bin/gnu/H-x86_64-pc-linux-gnu/bin/../lib/gcc/nios2-elf/5.3.0/mhw-mulx/libgcc.a(floatsidf.o)
 .debug_abbrev  0x0000000000006c5d      0x124 /opt/intelFPGA/18.1/nios2eds/bin/gnu/H-x86_64-pc-linux-gnu/bin/../lib/gcc/nios2-elf/5.3.0/mhw-mulx/libgcc.a(floatunsidf.o)
 .debug_abbrev  0x0000000000006d81       0x5d /opt/intelFPGA/18.1/nios2eds/bin/gnu/H-x86_64-pc-linux-gnu/bin/../lib/gcc/nios2-elf/5.3.0/mhw-mulx/libgcc.a(_clz.o)
 .debug_abbrev  0x0000000000006dde       0xbe /opt/intelFPGA/18.1/nios2eds/bin/gnu/H-x86_64-pc-linux-gnu/bin/../lib/gcc/nios2-elf/5.3.0/mhw-mulx/libgcc.a(_clzsi2.o)
 .debug_abbrev  0x0000000000006e9c      0x126 ../ucos2nios2_bsp//libucosii_bsp.a(alt_close.o)
 .debug_abbrev  0x0000000000006fc2      0x11c ../ucos2nios2_bsp//libucosii_bsp.a(alt_dev.o)
 .debug_abbrev  0x00000000000070de       0x5a ../ucos2nios2_bsp//libucosii_bsp.a(alt_errno.o)
 .debug_abbrev  0x0000000000007138      0x126 ../ucos2nios2_bsp//libucosii_bsp.a(alt_fstat.o)
 .debug_abbrev  0x000000000000725e      0x126 ../ucos2nios2_bsp//libucosii_bsp.a(alt_isatty.o)
 .debug_abbrev  0x0000000000007384       0x9f ../ucos2nios2_bsp//libucosii_bsp.a(alt_load.o)
 .debug_abbrev  0x0000000000007423      0x126 ../ucos2nios2_bsp//libucosii_bsp.a(alt_lseek.o)
 .debug_abbrev  0x0000000000007549      0x139 ../ucos2nios2_bsp//libucosii_bsp.a(alt_main.o)
 .debug_abbrev  0x0000000000007682      0x135 ../ucos2nios2_bsp//libucosii_bsp.a(alt_read.o)
 .debug_abbrev  0x00000000000077b7       0xe5 ../ucos2nios2_bsp//libucosii_bsp.a(alt_release_fd.o)
 .debug_abbrev  0x000000000000789c      0x119 ../ucos2nios2_bsp//libucosii_bsp.a(alt_sbrk.o)
 .debug_abbrev  0x00000000000079b5      0x13a ../ucos2nios2_bsp//libucosii_bsp.a(alt_write.o)
 .debug_abbrev  0x0000000000007aef      0x1e3 ../ucos2nios2_bsp//libucosii_bsp.a(alt_env_lock.o)
 .debug_abbrev  0x0000000000007cd2      0x26d ../ucos2nios2_bsp//libucosii_bsp.a(alt_malloc_lock.o)
 .debug_abbrev  0x0000000000007f3f      0x302 ../ucos2nios2_bsp//libucosii_bsp.a(os_core.o)
 .debug_abbrev  0x0000000000008241       0xf7 ../ucos2nios2_bsp//libucosii_bsp.a(os_dbg.o)
 .debug_abbrev  0x0000000000008338      0x25a ../ucos2nios2_bsp//libucosii_bsp.a(os_flag.o)
 .debug_abbrev  0x0000000000008592      0x21f ../ucos2nios2_bsp//libucosii_bsp.a(os_mbox.o)
 .debug_abbrev  0x00000000000087b1      0x228 ../ucos2nios2_bsp//libucosii_bsp.a(os_mem.o)
 .debug_abbrev  0x00000000000089d9      0x248 ../ucos2nios2_bsp//libucosii_bsp.a(os_q.o)
 .debug_abbrev  0x0000000000008c21      0x262 ../ucos2nios2_bsp//libucosii_bsp.a(os_sem.o)
 .debug_abbrev  0x0000000000008e83      0x247 ../ucos2nios2_bsp//libucosii_bsp.a(os_task.o)
 .debug_abbrev  0x00000000000090ca      0x20c ../ucos2nios2_bsp//libucosii_bsp.a(os_time.o)
 .debug_abbrev  0x00000000000092d6      0x1ef ../ucos2nios2_bsp//libucosii_bsp.a(alt_sys_init.o)
 .debug_abbrev  0x00000000000094c5      0x216 ../ucos2nios2_bsp//libucosii_bsp.a(Altera_UP_SD_Card_Avalon_Interface.o)
 .debug_abbrev  0x00000000000096db      0x16c ../ucos2nios2_bsp//libucosii_bsp.a(altera_avalon_jtag_uart_fd.o)
 .debug_abbrev  0x0000000000009847      0x24f ../ucos2nios2_bsp//libucosii_bsp.a(altera_avalon_jtag_uart_init.o)
 .debug_abbrev  0x0000000000009a96      0x156 ../ucos2nios2_bsp//libucosii_bsp.a(altera_avalon_jtag_uart_ioctl.o)
 .debug_abbrev  0x0000000000009bec      0x1f8 ../ucos2nios2_bsp//libucosii_bsp.a(altera_avalon_jtag_uart_read.o)
 .debug_abbrev  0x0000000000009de4      0x1f6 ../ucos2nios2_bsp//libucosii_bsp.a(altera_avalon_jtag_uart_write.o)
 .debug_abbrev  0x0000000000009fda      0x155 ../ucos2nios2_bsp//libucosii_bsp.a(altera_avalon_timer_sc.o)
 .debug_abbrev  0x000000000000a12f      0x165 ../ucos2nios2_bsp//libucosii_bsp.a(altera_up_avalon_audio.o)
 .debug_abbrev  0x000000000000a294      0x156 ../ucos2nios2_bsp//libucosii_bsp.a(altera_up_avalon_character_lcd.o)
 .debug_abbrev  0x000000000000a3ea      0x13c ../ucos2nios2_bsp//libucosii_bsp.a(altera_up_avalon_irda.o)
 .debug_abbrev  0x000000000000a526      0x1a8 ../ucos2nios2_bsp//libucosii_bsp.a(altera_up_avalon_ps2.o)
 .debug_abbrev  0x000000000000a6ce      0x13c ../ucos2nios2_bsp//libucosii_bsp.a(altera_up_avalon_rs232.o)
 .debug_abbrev  0x000000000000a80a      0x170 ../ucos2nios2_bsp//libucosii_bsp.a(altera_up_ps2_keyboard.o)
 .debug_abbrev  0x000000000000a97a      0x162 ../ucos2nios2_bsp//libucosii_bsp.a(alt_alarm_start.o)
 .debug_abbrev  0x000000000000aadc       0x42 ../ucos2nios2_bsp//libucosii_bsp.a(alt_dcache_flush_all.o)
 .debug_abbrev  0x000000000000ab1e      0x114 ../ucos2nios2_bsp//libucosii_bsp.a(alt_dev_llist_insert.o)
 .debug_abbrev  0x000000000000ac32       0x79 ../ucos2nios2_bsp//libucosii_bsp.a(alt_do_ctors.o)
 .debug_abbrev  0x000000000000acab       0x79 ../ucos2nios2_bsp//libucosii_bsp.a(alt_do_dtors.o)
 .debug_abbrev  0x000000000000ad24       0xf7 ../ucos2nios2_bsp//libucosii_bsp.a(alt_find_dev.o)
 .debug_abbrev  0x000000000000ae1b       0x42 ../ucos2nios2_bsp//libucosii_bsp.a(alt_icache_flush_all.o)
 .debug_abbrev  0x000000000000ae5d      0x11b ../ucos2nios2_bsp//libucosii_bsp.a(alt_io_redirect.o)
 .debug_abbrev  0x000000000000af78      0x186 ../ucos2nios2_bsp//libucosii_bsp.a(alt_irq_register.o)
 .debug_abbrev  0x000000000000b0fe       0x40 ../ucos2nios2_bsp//libucosii_bsp.a(alt_irq_vars.o)
 .debug_abbrev  0x000000000000b13e      0x14f ../ucos2nios2_bsp//libucosii_bsp.a(alt_open.o)
 .debug_abbrev  0x000000000000b28d      0x16b ../ucos2nios2_bsp//libucosii_bsp.a(alt_tick.o)
 .debug_abbrev  0x000000000000b3f8       0x67 ../ucos2nios2_bsp//libucosii_bsp.a(altera_nios2_gen2_irq.o)
 .debug_abbrev  0x000000000000b45f       0x14 ../ucos2nios2_bsp//libucosii_bsp.a(os_cpu_a.o)
 .debug_abbrev  0x000000000000b473      0x215 ../ucos2nios2_bsp//libucosii_bsp.a(os_cpu_c.o)
 .debug_abbrev  0x000000000000b688       0xf7 ../ucos2nios2_bsp//libucosii_bsp.a(alt_find_file.o)
 .debug_abbrev  0x000000000000b77f      0x19b ../ucos2nios2_bsp//libucosii_bsp.a(alt_get_fd.o)
 .debug_abbrev  0x000000000000b91a       0x8c ../ucos2nios2_bsp//libucosii_bsp.a(alt_icache_flush.o)
 .debug_abbrev  0x000000000000b9a6       0x12 ../ucos2nios2_bsp//libucosii_bsp.a(alt_irq_entry.o)
 .debug_abbrev  0x000000000000b9b8      0x13a ../ucos2nios2_bsp//libucosii_bsp.a(alt_irq_handler.o)
 .debug_abbrev  0x000000000000baf2       0x12 ../ucos2nios2_bsp//libucosii_bsp.a(alt_exception_entry.o)
 .debug_abbrev  0x000000000000bb04       0xdc ../ucos2nios2_bsp//libucosii_bsp.a(alt_instruction_exception_entry.o)
 .debug_abbrev  0x000000000000bbe0       0xaa /opt/intelFPGA/18.1/nios2eds/bin/gnu/H-x86_64-pc-linux-gnu/bin/../lib/gcc/nios2-elf/5.3.0/../../../../../H-x86_64-pc-linux-gnu/nios2-elf/lib/mhw-mulx/libc.a(lib_a-atexit.o)
 .debug_abbrev  0x000000000000bc8a      0x1e5 /opt/intelFPGA/18.1/nios2eds/bin/gnu/H-x86_64-pc-linux-gnu/bin/../lib/gcc/nios2-elf/5.3.0/../../../../../H-x86_64-pc-linux-gnu/nios2-elf/lib/mhw-mulx/libc.a(lib_a-exit.o)
 .debug_abbrev  0x000000000000be6f       0x7f /opt/intelFPGA/18.1/nios2eds/bin/gnu/H-x86_64-pc-linux-gnu/bin/../lib/gcc/nios2-elf/5.3.0/../../../../../H-x86_64-pc-linux-gnu/nios2-elf/lib/mhw-mulx/libc.a(lib_a-memcmp.o)
 .debug_abbrev  0x000000000000beee      0x21e /opt/intelFPGA/18.1/nios2eds/bin/gnu/H-x86_64-pc-linux-gnu/bin/../lib/gcc/nios2-elf/5.3.0/../../../../../H-x86_64-pc-linux-gnu/nios2-elf/lib/mhw-mulx/libc.a(lib_a-__atexit.o)
 .debug_abbrev  0x000000000000c10c      0x22e /opt/intelFPGA/18.1/nios2eds/bin/gnu/H-x86_64-pc-linux-gnu/bin/../lib/gcc/nios2-elf/5.3.0/../../../../../H-x86_64-pc-linux-gnu/nios2-elf/lib/mhw-mulx/libc.a(lib_a-__call_atexit.o)
 .debug_abbrev  0x000000000000c33a       0xe1 ../ucos2nios2_bsp//libucosii_bsp.a(alt_exit.o)

.debug_line     0x0000000000000000    0x1168c
 *(.debug_line)
 .debug_line    0x0000000000000000       0x6c ../ucos2nios2_bsp//obj/HAL/src/crt0.o
 .debug_line    0x000000000000006c      0x446 obj/default/pong.o
 .debug_line    0x00000000000004b2      0x15f obj/default/vga_stuff.o
 .debug_line    0x0000000000000611      0x1f3 /opt/intelFPGA/18.1/nios2eds/bin/gnu/H-x86_64-pc-linux-gnu/bin/../lib/gcc/nios2-elf/5.3.0/../../../../../H-x86_64-pc-linux-gnu/nios2-elf/lib/mhw-mulx/libc.a(lib_a-malloc.o)
 .debug_line    0x0000000000000804      0x3fc /opt/intelFPGA/18.1/nios2eds/bin/gnu/H-x86_64-pc-linux-gnu/bin/../lib/gcc/nios2-elf/5.3.0/../../../../../H-x86_64-pc-linux-gnu/nios2-elf/lib/mhw-mulx/libc.a(lib_a-mallocr.o)
 .debug_line    0x0000000000000c00      0x20b /opt/intelFPGA/18.1/nios2eds/bin/gnu/H-x86_64-pc-linux-gnu/bin/../lib/gcc/nios2-elf/5.3.0/../../../../../H-x86_64-pc-linux-gnu/nios2-elf/lib/mhw-mulx/libc.a(lib_a-printf.o)
 .debug_line    0x0000000000000e0b      0x248 /opt/intelFPGA/18.1/nios2eds/bin/gnu/H-x86_64-pc-linux-gnu/bin/../lib/gcc/nios2-elf/5.3.0/../../../../../H-x86_64-pc-linux-gnu/nios2-elf/lib/mhw-mulx/libc.a(lib_a-puts.o)
 .debug_line    0x0000000000001053      0x1e9 /opt/intelFPGA/18.1/nios2eds/bin/gnu/H-x86_64-pc-linux-gnu/bin/../lib/gcc/nios2-elf/5.3.0/../../../../../H-x86_64-pc-linux-gnu/nios2-elf/lib/mhw-mulx/libc.a(lib_a-sbrkr.o)
 .debug_line    0x000000000000123c      0x2a2 /opt/intelFPGA/18.1/nios2eds/bin/gnu/H-x86_64-pc-linux-gnu/bin/../lib/gcc/nios2-elf/5.3.0/../../../../../H-x86_64-pc-linux-gnu/nios2-elf/lib/mhw-mulx/libc.a(lib_a-snprintf.o)
 .debug_line    0x00000000000014de       0xee /opt/intelFPGA/18.1/nios2eds/bin/gnu/H-x86_64-pc-linux-gnu/bin/../lib/gcc/nios2-elf/5.3.0/../../../../../H-x86_64-pc-linux-gnu/nios2-elf/lib/mhw-mulx/libc.a(lib_a-strcat.o)
 .debug_line    0x00000000000015cc       0xf4 /opt/intelFPGA/18.1/nios2eds/bin/gnu/H-x86_64-pc-linux-gnu/bin/../lib/gcc/nios2-elf/5.3.0/../../../../../H-x86_64-pc-linux-gnu/nios2-elf/lib/mhw-mulx/libc.a(lib_a-strcpy.o)
 .debug_line    0x00000000000016c0      0x16f /opt/intelFPGA/18.1/nios2eds/bin/gnu/H-x86_64-pc-linux-gnu/bin/../lib/gcc/nios2-elf/5.3.0/../../../../../H-x86_64-pc-linux-gnu/nios2-elf/lib/mhw-mulx/libc.a(lib_a-strlen.o)
 .debug_line    0x000000000000182f      0xc14 /opt/intelFPGA/18.1/nios2eds/bin/gnu/H-x86_64-pc-linux-gnu/bin/../lib/gcc/nios2-elf/5.3.0/../../../../../H-x86_64-pc-linux-gnu/nios2-elf/lib/mhw-mulx/libc.a(lib_a-svfprintf.o)
 .debug_line    0x0000000000002443      0xc9b /opt/intelFPGA/18.1/nios2eds/bin/gnu/H-x86_64-pc-linux-gnu/bin/../lib/gcc/nios2-elf/5.3.0/../../../../../H-x86_64-pc-linux-gnu/nios2-elf/lib/mhw-mulx/libc.a(lib_a-vfprintf.o)
 .debug_line    0x00000000000030de      0x266 /opt/intelFPGA/18.1/nios2eds/bin/gnu/H-x86_64-pc-linux-gnu/bin/../lib/gcc/nios2-elf/5.3.0/../../../../../H-x86_64-pc-linux-gnu/nios2-elf/lib/mhw-mulx/libc.a(lib_a-wsetup.o)
 .debug_line    0x0000000000003344      0x7cd /opt/intelFPGA/18.1/nios2eds/bin/gnu/H-x86_64-pc-linux-gnu/bin/../lib/gcc/nios2-elf/5.3.0/../../../../../H-x86_64-pc-linux-gnu/nios2-elf/lib/mhw-mulx/libc.a(lib_a-dtoa.o)
 .debug_line    0x0000000000003b11      0x2ea /opt/intelFPGA/18.1/nios2eds/bin/gnu/H-x86_64-pc-linux-gnu/bin/../lib/gcc/nios2-elf/5.3.0/../../../../../H-x86_64-pc-linux-gnu/nios2-elf/lib/mhw-mulx/libc.a(lib_a-fflush.o)
 .debug_line    0x0000000000003dfb      0x372 /opt/intelFPGA/18.1/nios2eds/bin/gnu/H-x86_64-pc-linux-gnu/bin/../lib/gcc/nios2-elf/5.3.0/../../../../../H-x86_64-pc-linux-gnu/nios2-elf/lib/mhw-mulx/libc.a(lib_a-findfp.o)
 .debug_line    0x000000000000416d      0x2f7 /opt/intelFPGA/18.1/nios2eds/bin/gnu/H-x86_64-pc-linux-gnu/bin/../lib/gcc/nios2-elf/5.3.0/../../../../../H-x86_64-pc-linux-gnu/nios2-elf/lib/mhw-mulx/libc.a(lib_a-freer.o)
 .debug_line    0x0000000000004464      0x345 /opt/intelFPGA/18.1/nios2eds/bin/gnu/H-x86_64-pc-linux-gnu/bin/../lib/gcc/nios2-elf/5.3.0/../../../../../H-x86_64-pc-linux-gnu/nios2-elf/lib/mhw-mulx/libc.a(lib_a-fvwrite.o)
 .debug_line    0x00000000000047a9      0x23a /opt/intelFPGA/18.1/nios2eds/bin/gnu/H-x86_64-pc-linux-gnu/bin/../lib/gcc/nios2-elf/5.3.0/../../../../../H-x86_64-pc-linux-gnu/nios2-elf/lib/mhw-mulx/libc.a(lib_a-fwalk.o)
 .debug_line    0x00000000000049e3      0x160 /opt/intelFPGA/18.1/nios2eds/bin/gnu/H-x86_64-pc-linux-gnu/bin/../lib/gcc/nios2-elf/5.3.0/../../../../../H-x86_64-pc-linux-gnu/nios2-elf/lib/mhw-mulx/libc.a(lib_a-impure.o)
 .debug_line    0x0000000000004b43       0x5f /opt/intelFPGA/18.1/nios2eds/bin/gnu/H-x86_64-pc-linux-gnu/bin/../lib/gcc/nios2-elf/5.3.0/../../../../../H-x86_64-pc-linux-gnu/nios2-elf/lib/mhw-mulx/libc.a(lib_a-int_errno.o)
 .debug_line    0x0000000000004ba2      0x28e /opt/intelFPGA/18.1/nios2eds/bin/gnu/H-x86_64-pc-linux-gnu/bin/../lib/gcc/nios2-elf/5.3.0/../../../../../H-x86_64-pc-linux-gnu/nios2-elf/lib/mhw-mulx/libc.a(lib_a-locale.o)
 .debug_line    0x0000000000004e30      0x274 /opt/intelFPGA/18.1/nios2eds/bin/gnu/H-x86_64-pc-linux-gnu/bin/../lib/gcc/nios2-elf/5.3.0/../../../../../H-x86_64-pc-linux-gnu/nios2-elf/lib/mhw-mulx/libc.a(lib_a-makebuf.o)
 .debug_line    0x00000000000050a4      0x18d /opt/intelFPGA/18.1/nios2eds/bin/gnu/H-x86_64-pc-linux-gnu/bin/../lib/gcc/nios2-elf/5.3.0/../../../../../H-x86_64-pc-linux-gnu/nios2-elf/lib/mhw-mulx/libc.a(lib_a-memchr.o)
 .debug_line    0x0000000000005231      0x18c /opt/intelFPGA/18.1/nios2eds/bin/gnu/H-x86_64-pc-linux-gnu/bin/../lib/gcc/nios2-elf/5.3.0/../../../../../H-x86_64-pc-linux-gnu/nios2-elf/lib/mhw-mulx/libc.a(lib_a-memcpy.o)
 .debug_line    0x00000000000053bd      0x18d /opt/intelFPGA/18.1/nios2eds/bin/gnu/H-x86_64-pc-linux-gnu/bin/../lib/gcc/nios2-elf/5.3.0/../../../../../H-x86_64-pc-linux-gnu/nios2-elf/lib/mhw-mulx/libc.a(lib_a-memmove.o)
 .debug_line    0x000000000000554a      0x18f /opt/intelFPGA/18.1/nios2eds/bin/gnu/H-x86_64-pc-linux-gnu/bin/../lib/gcc/nios2-elf/5.3.0/../../../../../H-x86_64-pc-linux-gnu/nios2-elf/lib/mhw-mulx/libc.a(lib_a-memset.o)
 .debug_line    0x00000000000056d9      0x78a /opt/intelFPGA/18.1/nios2eds/bin/gnu/H-x86_64-pc-linux-gnu/bin/../lib/gcc/nios2-elf/5.3.0/../../../../../H-x86_64-pc-linux-gnu/nios2-elf/lib/mhw-mulx/libc.a(lib_a-mprec.o)
 .debug_line    0x0000000000005e63      0x2f5 /opt/intelFPGA/18.1/nios2eds/bin/gnu/H-x86_64-pc-linux-gnu/bin/../lib/gcc/nios2-elf/5.3.0/../../../../../H-x86_64-pc-linux-gnu/nios2-elf/lib/mhw-mulx/libc.a(lib_a-reallocr.o)
 .debug_line    0x0000000000006158      0x16f /opt/intelFPGA/18.1/nios2eds/bin/gnu/H-x86_64-pc-linux-gnu/bin/../lib/gcc/nios2-elf/5.3.0/../../../../../H-x86_64-pc-linux-gnu/nios2-elf/lib/mhw-mulx/libc.a(lib_a-s_fpclassify.o)
 .debug_line    0x00000000000062c7      0x26a /opt/intelFPGA/18.1/nios2eds/bin/gnu/H-x86_64-pc-linux-gnu/bin/../lib/gcc/nios2-elf/5.3.0/../../../../../H-x86_64-pc-linux-gnu/nios2-elf/lib/mhw-mulx/libc.a(lib_a-stdio.o)
 .debug_line    0x0000000000006531      0x101 /opt/intelFPGA/18.1/nios2eds/bin/gnu/H-x86_64-pc-linux-gnu/bin/../lib/gcc/nios2-elf/5.3.0/../../../../../H-x86_64-pc-linux-gnu/nios2-elf/lib/mhw-mulx/libc.a(lib_a-strcmp.o)
 .debug_line    0x0000000000006632      0x894 /opt/intelFPGA/18.1/nios2eds/bin/gnu/H-x86_64-pc-linux-gnu/bin/../lib/gcc/nios2-elf/5.3.0/../../../../../H-x86_64-pc-linux-gnu/nios2-elf/lib/mhw-mulx/libc.a(lib_a-svfiprintf.o)
 .debug_line    0x0000000000006ec6      0x959 /opt/intelFPGA/18.1/nios2eds/bin/gnu/H-x86_64-pc-linux-gnu/bin/../lib/gcc/nios2-elf/5.3.0/../../../../../H-x86_64-pc-linux-gnu/nios2-elf/lib/mhw-mulx/libc.a(lib_a-vfiprintf.o)
 .debug_line    0x000000000000781f      0x1f6 /opt/intelFPGA/18.1/nios2eds/bin/gnu/H-x86_64-pc-linux-gnu/bin/../lib/gcc/nios2-elf/5.3.0/../../../../../H-x86_64-pc-linux-gnu/nios2-elf/lib/mhw-mulx/libc.a(lib_a-writer.o)
 .debug_line    0x0000000000007a15      0x1f6 /opt/intelFPGA/18.1/nios2eds/bin/gnu/H-x86_64-pc-linux-gnu/bin/../lib/gcc/nios2-elf/5.3.0/../../../../../H-x86_64-pc-linux-gnu/nios2-elf/lib/mhw-mulx/libc.a(closer.o)
 .debug_line    0x0000000000007c0b      0x1ab /opt/intelFPGA/18.1/nios2eds/bin/gnu/H-x86_64-pc-linux-gnu/bin/../lib/gcc/nios2-elf/5.3.0/../../../../../H-x86_64-pc-linux-gnu/nios2-elf/lib/mhw-mulx/libc.a(lib_a-callocr.o)
 .debug_line    0x0000000000007db6      0x239 /opt/intelFPGA/18.1/nios2eds/bin/gnu/H-x86_64-pc-linux-gnu/bin/../lib/gcc/nios2-elf/5.3.0/../../../../../H-x86_64-pc-linux-gnu/nios2-elf/lib/mhw-mulx/libc.a(lib_a-fclose.o)
 .debug_line    0x0000000000007fef      0x2a5 /opt/intelFPGA/18.1/nios2eds/bin/gnu/H-x86_64-pc-linux-gnu/bin/../lib/gcc/nios2-elf/5.3.0/../../../../../H-x86_64-pc-linux-gnu/nios2-elf/lib/mhw-mulx/libc.a(lib_a-fputwc.o)
 .debug_line    0x0000000000008294      0x1ff /opt/intelFPGA/18.1/nios2eds/bin/gnu/H-x86_64-pc-linux-gnu/bin/../lib/gcc/nios2-elf/5.3.0/../../../../../H-x86_64-pc-linux-gnu/nios2-elf/lib/mhw-mulx/libc.a(lib_a-fstatr.o)
 .debug_line    0x0000000000008493      0x1f7 /opt/intelFPGA/18.1/nios2eds/bin/gnu/H-x86_64-pc-linux-gnu/bin/../lib/gcc/nios2-elf/5.3.0/../../../../../H-x86_64-pc-linux-gnu/nios2-elf/lib/mhw-mulx/libc.a(lib_a-isattyr.o)
 .debug_line    0x000000000000868a      0x1f6 /opt/intelFPGA/18.1/nios2eds/bin/gnu/H-x86_64-pc-linux-gnu/bin/../lib/gcc/nios2-elf/5.3.0/../../../../../H-x86_64-pc-linux-gnu/nios2-elf/lib/mhw-mulx/libc.a(lib_a-lseekr.o)
 .debug_line    0x0000000000008880      0x1f5 /opt/intelFPGA/18.1/nios2eds/bin/gnu/H-x86_64-pc-linux-gnu/bin/../lib/gcc/nios2-elf/5.3.0/../../../../../H-x86_64-pc-linux-gnu/nios2-elf/lib/mhw-mulx/libc.a(lib_a-readr.o)
 .debug_line    0x0000000000008a75      0x271 /opt/intelFPGA/18.1/nios2eds/bin/gnu/H-x86_64-pc-linux-gnu/bin/../lib/gcc/nios2-elf/5.3.0/../../../../../H-x86_64-pc-linux-gnu/nios2-elf/lib/mhw-mulx/libc.a(lib_a-wbuf.o)
 .debug_line    0x0000000000008ce6      0x226 /opt/intelFPGA/18.1/nios2eds/bin/gnu/H-x86_64-pc-linux-gnu/bin/../lib/gcc/nios2-elf/5.3.0/../../../../../H-x86_64-pc-linux-gnu/nios2-elf/lib/mhw-mulx/libc.a(lib_a-wcrtomb.o)
 .debug_line    0x0000000000008f0c      0x21a /opt/intelFPGA/18.1/nios2eds/bin/gnu/H-x86_64-pc-linux-gnu/bin/../lib/gcc/nios2-elf/5.3.0/../../../../../H-x86_64-pc-linux-gnu/nios2-elf/lib/mhw-mulx/libc.a(lib_a-wctomb_r.o)
 .debug_line    0x0000000000009126      0x130 /opt/intelFPGA/18.1/nios2eds/bin/gnu/H-x86_64-pc-linux-gnu/bin/../lib/gcc/nios2-elf/5.3.0/mhw-mulx/libgcc.a(_udivdi3.o)
 .debug_line    0x0000000000009256      0x140 /opt/intelFPGA/18.1/nios2eds/bin/gnu/H-x86_64-pc-linux-gnu/bin/../lib/gcc/nios2-elf/5.3.0/mhw-mulx/libgcc.a(_umoddi3.o)
 .debug_line    0x0000000000009396      0x105 /opt/intelFPGA/18.1/nios2eds/bin/gnu/H-x86_64-pc-linux-gnu/bin/../lib/gcc/nios2-elf/5.3.0/mhw-mulx/libgcc.a(lib2-divmod.o)
 .debug_line    0x000000000000949b      0x37e /opt/intelFPGA/18.1/nios2eds/bin/gnu/H-x86_64-pc-linux-gnu/bin/../lib/gcc/nios2-elf/5.3.0/mhw-mulx/libgcc.a(adddf3.o)
 .debug_line    0x0000000000009819      0x2b0 /opt/intelFPGA/18.1/nios2eds/bin/gnu/H-x86_64-pc-linux-gnu/bin/../lib/gcc/nios2-elf/5.3.0/mhw-mulx/libgcc.a(divdf3.o)
 .debug_line    0x0000000000009ac9       0xad /opt/intelFPGA/18.1/nios2eds/bin/gnu/H-x86_64-pc-linux-gnu/bin/../lib/gcc/nios2-elf/5.3.0/mhw-mulx/libgcc.a(eqdf2.o)
 .debug_line    0x0000000000009b76       0xce /opt/intelFPGA/18.1/nios2eds/bin/gnu/H-x86_64-pc-linux-gnu/bin/../lib/gcc/nios2-elf/5.3.0/mhw-mulx/libgcc.a(gedf2.o)
 .debug_line    0x0000000000009c44       0xe6 /opt/intelFPGA/18.1/nios2eds/bin/gnu/H-x86_64-pc-linux-gnu/bin/../lib/gcc/nios2-elf/5.3.0/mhw-mulx/libgcc.a(ledf2.o)
 .debug_line    0x0000000000009d2a      0x1e6 /opt/intelFPGA/18.1/nios2eds/bin/gnu/H-x86_64-pc-linux-gnu/bin/../lib/gcc/nios2-elf/5.3.0/mhw-mulx/libgcc.a(muldf3.o)
 .debug_line    0x0000000000009f10      0x3ab /opt/intelFPGA/18.1/nios2eds/bin/gnu/H-x86_64-pc-linux-gnu/bin/../lib/gcc/nios2-elf/5.3.0/mhw-mulx/libgcc.a(subdf3.o)
 .debug_line    0x000000000000a2bb       0x9b /opt/intelFPGA/18.1/nios2eds/bin/gnu/H-x86_64-pc-linux-gnu/bin/../lib/gcc/nios2-elf/5.3.0/mhw-mulx/libgcc.a(fixdfsi.o)
 .debug_line    0x000000000000a356       0xa2 /opt/intelFPGA/18.1/nios2eds/bin/gnu/H-x86_64-pc-linux-gnu/bin/../lib/gcc/nios2-elf/5.3.0/mhw-mulx/libgcc.a(floatsidf.o)
 .debug_line    0x000000000000a3f8       0x95 /opt/intelFPGA/18.1/nios2eds/bin/gnu/H-x86_64-pc-linux-gnu/bin/../lib/gcc/nios2-elf/5.3.0/mhw-mulx/libgcc.a(floatunsidf.o)
 .debug_line    0x000000000000a48d       0x56 /opt/intelFPGA/18.1/nios2eds/bin/gnu/H-x86_64-pc-linux-gnu/bin/../lib/gcc/nios2-elf/5.3.0/mhw-mulx/libgcc.a(_clz.o)
 .debug_line    0x000000000000a4e3       0xbd /opt/intelFPGA/18.1/nios2eds/bin/gnu/H-x86_64-pc-linux-gnu/bin/../lib/gcc/nios2-elf/5.3.0/mhw-mulx/libgcc.a(_clzsi2.o)
 .debug_line    0x000000000000a5a0      0x18a ../ucos2nios2_bsp//libucosii_bsp.a(alt_close.o)
 .debug_line    0x000000000000a72a      0x152 ../ucos2nios2_bsp//libucosii_bsp.a(alt_dev.o)
 .debug_line    0x000000000000a87c       0x51 ../ucos2nios2_bsp//libucosii_bsp.a(alt_errno.o)
 .debug_line    0x000000000000a8cd      0x183 ../ucos2nios2_bsp//libucosii_bsp.a(alt_fstat.o)
 .debug_line    0x000000000000aa50      0x187 ../ucos2nios2_bsp//libucosii_bsp.a(alt_isatty.o)
 .debug_line    0x000000000000abd7       0x8e ../ucos2nios2_bsp//libucosii_bsp.a(alt_load.o)
 .debug_line    0x000000000000ac65      0x188 ../ucos2nios2_bsp//libucosii_bsp.a(alt_lseek.o)
 .debug_line    0x000000000000aded      0x143 ../ucos2nios2_bsp//libucosii_bsp.a(alt_main.o)
 .debug_line    0x000000000000af30      0x203 ../ucos2nios2_bsp//libucosii_bsp.a(alt_read.o)
 .debug_line    0x000000000000b133       0xd1 ../ucos2nios2_bsp//libucosii_bsp.a(alt_release_fd.o)
 .debug_line    0x000000000000b204      0x131 ../ucos2nios2_bsp//libucosii_bsp.a(alt_sbrk.o)
 .debug_line    0x000000000000b335      0x202 ../ucos2nios2_bsp//libucosii_bsp.a(alt_write.o)
 .debug_line    0x000000000000b537      0x1c2 ../ucos2nios2_bsp//libucosii_bsp.a(alt_env_lock.o)
 .debug_line    0x000000000000b6f9      0x226 ../ucos2nios2_bsp//libucosii_bsp.a(alt_malloc_lock.o)
 .debug_line    0x000000000000b91f      0x69f ../ucos2nios2_bsp//libucosii_bsp.a(os_core.o)
 .debug_line    0x000000000000bfbe       0xe6 ../ucos2nios2_bsp//libucosii_bsp.a(os_dbg.o)
 .debug_line    0x000000000000c0a4      0x513 ../ucos2nios2_bsp//libucosii_bsp.a(os_flag.o)
 .debug_line    0x000000000000c5b7      0x313 ../ucos2nios2_bsp//libucosii_bsp.a(os_mbox.o)
 .debug_line    0x000000000000c8ca      0x252 ../ucos2nios2_bsp//libucosii_bsp.a(os_mem.o)
 .debug_line    0x000000000000cb1c      0x40f ../ucos2nios2_bsp//libucosii_bsp.a(os_q.o)
 .debug_line    0x000000000000cf2b      0x2f4 ../ucos2nios2_bsp//libucosii_bsp.a(os_sem.o)
 .debug_line    0x000000000000d21f      0x541 ../ucos2nios2_bsp//libucosii_bsp.a(os_task.o)
 .debug_line    0x000000000000d760      0x1bc ../ucos2nios2_bsp//libucosii_bsp.a(os_time.o)
 .debug_line    0x000000000000d91c      0x3c3 ../ucos2nios2_bsp//libucosii_bsp.a(alt_sys_init.o)
 .debug_line    0x000000000000dcdf      0xa54 ../ucos2nios2_bsp//libucosii_bsp.a(Altera_UP_SD_Card_Avalon_Interface.o)
 .debug_line    0x000000000000e733      0x169 ../ucos2nios2_bsp//libucosii_bsp.a(altera_avalon_jtag_uart_fd.o)
 .debug_line    0x000000000000e89c      0x238 ../ucos2nios2_bsp//libucosii_bsp.a(altera_avalon_jtag_uart_init.o)
 .debug_line    0x000000000000ead4      0x16b ../ucos2nios2_bsp//libucosii_bsp.a(altera_avalon_jtag_uart_ioctl.o)
 .debug_line    0x000000000000ec3f      0x1ef ../ucos2nios2_bsp//libucosii_bsp.a(altera_avalon_jtag_uart_read.o)
 .debug_line    0x000000000000ee2e      0x1f0 ../ucos2nios2_bsp//libucosii_bsp.a(altera_avalon_jtag_uart_write.o)
 .debug_line    0x000000000000f01e      0x113 ../ucos2nios2_bsp//libucosii_bsp.a(altera_avalon_timer_sc.o)
 .debug_line    0x000000000000f131      0x207 ../ucos2nios2_bsp//libucosii_bsp.a(altera_up_avalon_audio.o)
 .debug_line    0x000000000000f338      0x1d7 ../ucos2nios2_bsp//libucosii_bsp.a(altera_up_avalon_character_lcd.o)
 .debug_line    0x000000000000f50f      0x15f ../ucos2nios2_bsp//libucosii_bsp.a(altera_up_avalon_irda.o)
 .debug_line    0x000000000000f66e      0x1c8 ../ucos2nios2_bsp//libucosii_bsp.a(altera_up_avalon_ps2.o)
 .debug_line    0x000000000000f836      0x161 ../ucos2nios2_bsp//libucosii_bsp.a(altera_up_avalon_rs232.o)
 .debug_line    0x000000000000f997      0x1b0 ../ucos2nios2_bsp//libucosii_bsp.a(altera_up_ps2_keyboard.o)
 .debug_line    0x000000000000fb47      0x10d ../ucos2nios2_bsp//libucosii_bsp.a(alt_alarm_start.o)
 .debug_line    0x000000000000fc54       0x51 ../ucos2nios2_bsp//libucosii_bsp.a(alt_dcache_flush_all.o)
 .debug_line    0x000000000000fca5       0xcf ../ucos2nios2_bsp//libucosii_bsp.a(alt_dev_llist_insert.o)
 .debug_line    0x000000000000fd74       0x59 ../ucos2nios2_bsp//libucosii_bsp.a(alt_do_ctors.o)
 .debug_line    0x000000000000fdcd       0x59 ../ucos2nios2_bsp//libucosii_bsp.a(alt_do_dtors.o)
 .debug_line    0x000000000000fe26       0xd8 ../ucos2nios2_bsp//libucosii_bsp.a(alt_find_dev.o)
 .debug_line    0x000000000000fefe       0x50 ../ucos2nios2_bsp//libucosii_bsp.a(alt_icache_flush_all.o)
 .debug_line    0x000000000000ff4e      0x158 ../ucos2nios2_bsp//libucosii_bsp.a(alt_io_redirect.o)
 .debug_line    0x00000000000100a6      0x164 ../ucos2nios2_bsp//libucosii_bsp.a(alt_irq_register.o)
 .debug_line    0x000000000001020a       0x50 ../ucos2nios2_bsp//libucosii_bsp.a(alt_irq_vars.o)
 .debug_line    0x000000000001025a      0x14b ../ucos2nios2_bsp//libucosii_bsp.a(alt_open.o)
 .debug_line    0x00000000000103a5      0x113 ../ucos2nios2_bsp//libucosii_bsp.a(alt_tick.o)
 .debug_line    0x00000000000104b8       0x8d ../ucos2nios2_bsp//libucosii_bsp.a(altera_nios2_gen2_irq.o)
 .debug_line    0x0000000000010545       0x86 ../ucos2nios2_bsp//libucosii_bsp.a(os_cpu_a.o)
 .debug_line    0x00000000000105cb      0x1ca ../ucos2nios2_bsp//libucosii_bsp.a(os_cpu_c.o)
 .debug_line    0x0000000000010795       0xf4 ../ucos2nios2_bsp//libucosii_bsp.a(alt_find_file.o)
 .debug_line    0x0000000000010889      0x13a ../ucos2nios2_bsp//libucosii_bsp.a(alt_get_fd.o)
 .debug_line    0x00000000000109c3       0x81 ../ucos2nios2_bsp//libucosii_bsp.a(alt_icache_flush.o)
 .debug_line    0x0000000000010a44       0x6b ../ucos2nios2_bsp//libucosii_bsp.a(alt_irq_entry.o)
 .debug_line    0x0000000000010aaf       0xdc ../ucos2nios2_bsp//libucosii_bsp.a(alt_irq_handler.o)
 .debug_line    0x0000000000010b8b       0xb3 ../ucos2nios2_bsp//libucosii_bsp.a(alt_exception_entry.o)
 .debug_line    0x0000000000010c3e       0xba ../ucos2nios2_bsp//libucosii_bsp.a(alt_instruction_exception_entry.o)
 .debug_line    0x0000000000010cf8       0xe7 /opt/intelFPGA/18.1/nios2eds/bin/gnu/H-x86_64-pc-linux-gnu/bin/../lib/gcc/nios2-elf/5.3.0/../../../../../H-x86_64-pc-linux-gnu/nios2-elf/lib/mhw-mulx/libc.a(lib_a-atexit.o)
 .debug_line    0x0000000000010ddf      0x1fc /opt/intelFPGA/18.1/nios2eds/bin/gnu/H-x86_64-pc-linux-gnu/bin/../lib/gcc/nios2-elf/5.3.0/../../../../../H-x86_64-pc-linux-gnu/nios2-elf/lib/mhw-mulx/libc.a(lib_a-exit.o)
 .debug_line    0x0000000000010fdb      0x176 /opt/intelFPGA/18.1/nios2eds/bin/gnu/H-x86_64-pc-linux-gnu/bin/../lib/gcc/nios2-elf/5.3.0/../../../../../H-x86_64-pc-linux-gnu/nios2-elf/lib/mhw-mulx/libc.a(lib_a-memcmp.o)
 .debug_line    0x0000000000011151      0x21f /opt/intelFPGA/18.1/nios2eds/bin/gnu/H-x86_64-pc-linux-gnu/bin/../lib/gcc/nios2-elf/5.3.0/../../../../../H-x86_64-pc-linux-gnu/nios2-elf/lib/mhw-mulx/libc.a(lib_a-__atexit.o)
 .debug_line    0x0000000000011370      0x23a /opt/intelFPGA/18.1/nios2eds/bin/gnu/H-x86_64-pc-linux-gnu/bin/../lib/gcc/nios2-elf/5.3.0/../../../../../H-x86_64-pc-linux-gnu/nios2-elf/lib/mhw-mulx/libc.a(lib_a-__call_atexit.o)
 .debug_line    0x00000000000115aa       0xe2 ../ucos2nios2_bsp//libucosii_bsp.a(alt_exit.o)

.debug_frame    0x0000000000000000     0x47a8
 *(.debug_frame)
 .debug_frame   0x0000000000000000      0x224 obj/default/pong.o
 .debug_frame   0x0000000000000224      0x1d0 obj/default/vga_stuff.o
 .debug_frame   0x00000000000003f4       0x30 /opt/intelFPGA/18.1/nios2eds/bin/gnu/H-x86_64-pc-linux-gnu/bin/../lib/gcc/nios2-elf/5.3.0/../../../../../H-x86_64-pc-linux-gnu/nios2-elf/lib/mhw-mulx/libc.a(lib_a-malloc.o)
 .debug_frame   0x0000000000000424       0x54 /opt/intelFPGA/18.1/nios2eds/bin/gnu/H-x86_64-pc-linux-gnu/bin/../lib/gcc/nios2-elf/5.3.0/../../../../../H-x86_64-pc-linux-gnu/nios2-elf/lib/mhw-mulx/libc.a(lib_a-mallocr.o)
 .debug_frame   0x0000000000000478       0x48 /opt/intelFPGA/18.1/nios2eds/bin/gnu/H-x86_64-pc-linux-gnu/bin/../lib/gcc/nios2-elf/5.3.0/../../../../../H-x86_64-pc-linux-gnu/nios2-elf/lib/mhw-mulx/libc.a(lib_a-printf.o)
 .debug_frame   0x00000000000004c0       0x48 /opt/intelFPGA/18.1/nios2eds/bin/gnu/H-x86_64-pc-linux-gnu/bin/../lib/gcc/nios2-elf/5.3.0/../../../../../H-x86_64-pc-linux-gnu/nios2-elf/lib/mhw-mulx/libc.a(lib_a-puts.o)
 .debug_frame   0x0000000000000508       0x38 /opt/intelFPGA/18.1/nios2eds/bin/gnu/H-x86_64-pc-linux-gnu/bin/../lib/gcc/nios2-elf/5.3.0/../../../../../H-x86_64-pc-linux-gnu/nios2-elf/lib/mhw-mulx/libc.a(lib_a-sbrkr.o)
 .debug_frame   0x0000000000000540       0x7c /opt/intelFPGA/18.1/nios2eds/bin/gnu/H-x86_64-pc-linux-gnu/bin/../lib/gcc/nios2-elf/5.3.0/../../../../../H-x86_64-pc-linux-gnu/nios2-elf/lib/mhw-mulx/libc.a(lib_a-snprintf.o)
 .debug_frame   0x00000000000005bc       0x30 /opt/intelFPGA/18.1/nios2eds/bin/gnu/H-x86_64-pc-linux-gnu/bin/../lib/gcc/nios2-elf/5.3.0/../../../../../H-x86_64-pc-linux-gnu/nios2-elf/lib/mhw-mulx/libc.a(lib_a-strcat.o)
 .debug_frame   0x00000000000005ec       0x20 /opt/intelFPGA/18.1/nios2eds/bin/gnu/H-x86_64-pc-linux-gnu/bin/../lib/gcc/nios2-elf/5.3.0/../../../../../H-x86_64-pc-linux-gnu/nios2-elf/lib/mhw-mulx/libc.a(lib_a-strcpy.o)
 .debug_frame   0x000000000000060c       0x20 /opt/intelFPGA/18.1/nios2eds/bin/gnu/H-x86_64-pc-linux-gnu/bin/../lib/gcc/nios2-elf/5.3.0/../../../../../H-x86_64-pc-linux-gnu/nios2-elf/lib/mhw-mulx/libc.a(lib_a-strlen.o)
 .debug_frame   0x000000000000062c       0x58 /opt/intelFPGA/18.1/nios2eds/bin/gnu/H-x86_64-pc-linux-gnu/bin/../lib/gcc/nios2-elf/5.3.0/../../../../../H-x86_64-pc-linux-gnu/nios2-elf/lib/mhw-mulx/libc.a(lib_a-svfprintf.o)
 .debug_frame   0x0000000000000684       0x98 /opt/intelFPGA/18.1/nios2eds/bin/gnu/H-x86_64-pc-linux-gnu/bin/../lib/gcc/nios2-elf/5.3.0/../../../../../H-x86_64-pc-linux-gnu/nios2-elf/lib/mhw-mulx/libc.a(lib_a-vfprintf.o)
 .debug_frame   0x000000000000071c       0x38 /opt/intelFPGA/18.1/nios2eds/bin/gnu/H-x86_64-pc-linux-gnu/bin/../lib/gcc/nios2-elf/5.3.0/../../../../../H-x86_64-pc-linux-gnu/nios2-elf/lib/mhw-mulx/libc.a(lib_a-wsetup.o)
 .debug_frame   0x0000000000000754       0x98 /opt/intelFPGA/18.1/nios2eds/bin/gnu/H-x86_64-pc-linux-gnu/bin/../lib/gcc/nios2-elf/5.3.0/../../../../../H-x86_64-pc-linux-gnu/nios2-elf/lib/mhw-mulx/libc.a(lib_a-dtoa.o)
 .debug_frame   0x00000000000007ec       0x7c /opt/intelFPGA/18.1/nios2eds/bin/gnu/H-x86_64-pc-linux-gnu/bin/../lib/gcc/nios2-elf/5.3.0/../../../../../H-x86_64-pc-linux-gnu/nios2-elf/lib/mhw-mulx/libc.a(lib_a-fflush.o)
 .debug_frame   0x0000000000000868      0x160 /opt/intelFPGA/18.1/nios2eds/bin/gnu/H-x86_64-pc-linux-gnu/bin/../lib/gcc/nios2-elf/5.3.0/../../../../../H-x86_64-pc-linux-gnu/nios2-elf/lib/mhw-mulx/libc.a(lib_a-findfp.o)
 .debug_frame   0x00000000000009c8       0x70 /opt/intelFPGA/18.1/nios2eds/bin/gnu/H-x86_64-pc-linux-gnu/bin/../lib/gcc/nios2-elf/5.3.0/../../../../../H-x86_64-pc-linux-gnu/nios2-elf/lib/mhw-mulx/libc.a(lib_a-freer.o)
 .debug_frame   0x0000000000000a38       0x78 /opt/intelFPGA/18.1/nios2eds/bin/gnu/H-x86_64-pc-linux-gnu/bin/../lib/gcc/nios2-elf/5.3.0/../../../../../H-x86_64-pc-linux-gnu/nios2-elf/lib/mhw-mulx/libc.a(lib_a-fvwrite.o)
 .debug_frame   0x0000000000000ab0       0x90 /opt/intelFPGA/18.1/nios2eds/bin/gnu/H-x86_64-pc-linux-gnu/bin/../lib/gcc/nios2-elf/5.3.0/../../../../../H-x86_64-pc-linux-gnu/nios2-elf/lib/mhw-mulx/libc.a(lib_a-fwalk.o)
 .debug_frame   0x0000000000000b40       0xa8 /opt/intelFPGA/18.1/nios2eds/bin/gnu/H-x86_64-pc-linux-gnu/bin/../lib/gcc/nios2-elf/5.3.0/../../../../../H-x86_64-pc-linux-gnu/nios2-elf/lib/mhw-mulx/libc.a(lib_a-locale.o)
 .debug_frame   0x0000000000000be8       0x4c /opt/intelFPGA/18.1/nios2eds/bin/gnu/H-x86_64-pc-linux-gnu/bin/../lib/gcc/nios2-elf/5.3.0/../../../../../H-x86_64-pc-linux-gnu/nios2-elf/lib/mhw-mulx/libc.a(lib_a-makebuf.o)
 .debug_frame   0x0000000000000c34       0x20 /opt/intelFPGA/18.1/nios2eds/bin/gnu/H-x86_64-pc-linux-gnu/bin/../lib/gcc/nios2-elf/5.3.0/../../../../../H-x86_64-pc-linux-gnu/nios2-elf/lib/mhw-mulx/libc.a(lib_a-memchr.o)
 .debug_frame   0x0000000000000c54       0x38 /opt/intelFPGA/18.1/nios2eds/bin/gnu/H-x86_64-pc-linux-gnu/bin/../lib/gcc/nios2-elf/5.3.0/../../../../../H-x86_64-pc-linux-gnu/nios2-elf/lib/mhw-mulx/libc.a(lib_a-memcpy.o)
 .debug_frame   0x0000000000000c8c       0x20 /opt/intelFPGA/18.1/nios2eds/bin/gnu/H-x86_64-pc-linux-gnu/bin/../lib/gcc/nios2-elf/5.3.0/../../../../../H-x86_64-pc-linux-gnu/nios2-elf/lib/mhw-mulx/libc.a(lib_a-memmove.o)
 .debug_frame   0x0000000000000cac       0x20 /opt/intelFPGA/18.1/nios2eds/bin/gnu/H-x86_64-pc-linux-gnu/bin/../lib/gcc/nios2-elf/5.3.0/../../../../../H-x86_64-pc-linux-gnu/nios2-elf/lib/mhw-mulx/libc.a(lib_a-memset.o)
 .debug_frame   0x0000000000000ccc      0x2e0 /opt/intelFPGA/18.1/nios2eds/bin/gnu/H-x86_64-pc-linux-gnu/bin/../lib/gcc/nios2-elf/5.3.0/../../../../../H-x86_64-pc-linux-gnu/nios2-elf/lib/mhw-mulx/libc.a(lib_a-mprec.o)
 .debug_frame   0x0000000000000fac       0x70 /opt/intelFPGA/18.1/nios2eds/bin/gnu/H-x86_64-pc-linux-gnu/bin/../lib/gcc/nios2-elf/5.3.0/../../../../../H-x86_64-pc-linux-gnu/nios2-elf/lib/mhw-mulx/libc.a(lib_a-reallocr.o)
 .debug_frame   0x000000000000101c       0x20 /opt/intelFPGA/18.1/nios2eds/bin/gnu/H-x86_64-pc-linux-gnu/bin/../lib/gcc/nios2-elf/5.3.0/../../../../../H-x86_64-pc-linux-gnu/nios2-elf/lib/mhw-mulx/libc.a(lib_a-s_fpclassify.o)
 .debug_frame   0x000000000000103c       0xb4 /opt/intelFPGA/18.1/nios2eds/bin/gnu/H-x86_64-pc-linux-gnu/bin/../lib/gcc/nios2-elf/5.3.0/../../../../../H-x86_64-pc-linux-gnu/nios2-elf/lib/mhw-mulx/libc.a(lib_a-stdio.o)
 .debug_frame   0x00000000000010f0       0x20 /opt/intelFPGA/18.1/nios2eds/bin/gnu/H-x86_64-pc-linux-gnu/bin/../lib/gcc/nios2-elf/5.3.0/../../../../../H-x86_64-pc-linux-gnu/nios2-elf/lib/mhw-mulx/libc.a(lib_a-strcmp.o)
 .debug_frame   0x0000000000001110       0x9c /opt/intelFPGA/18.1/nios2eds/bin/gnu/H-x86_64-pc-linux-gnu/bin/../lib/gcc/nios2-elf/5.3.0/../../../../../H-x86_64-pc-linux-gnu/nios2-elf/lib/mhw-mulx/libc.a(lib_a-svfiprintf.o)
 .debug_frame   0x00000000000011ac       0xec /opt/intelFPGA/18.1/nios2eds/bin/gnu/H-x86_64-pc-linux-gnu/bin/../lib/gcc/nios2-elf/5.3.0/../../../../../H-x86_64-pc-linux-gnu/nios2-elf/lib/mhw-mulx/libc.a(lib_a-vfiprintf.o)
 .debug_frame   0x0000000000001298       0x38 /opt/intelFPGA/18.1/nios2eds/bin/gnu/H-x86_64-pc-linux-gnu/bin/../lib/gcc/nios2-elf/5.3.0/../../../../../H-x86_64-pc-linux-gnu/nios2-elf/lib/mhw-mulx/libc.a(lib_a-writer.o)
 .debug_frame   0x00000000000012d0       0x38 /opt/intelFPGA/18.1/nios2eds/bin/gnu/H-x86_64-pc-linux-gnu/bin/../lib/gcc/nios2-elf/5.3.0/../../../../../H-x86_64-pc-linux-gnu/nios2-elf/lib/mhw-mulx/libc.a(closer.o)
 .debug_frame   0x0000000000001308       0x40 /opt/intelFPGA/18.1/nios2eds/bin/gnu/H-x86_64-pc-linux-gnu/bin/../lib/gcc/nios2-elf/5.3.0/../../../../../H-x86_64-pc-linux-gnu/nios2-elf/lib/mhw-mulx/libc.a(lib_a-callocr.o)
 .debug_frame   0x0000000000001348       0x54 /opt/intelFPGA/18.1/nios2eds/bin/gnu/H-x86_64-pc-linux-gnu/bin/../lib/gcc/nios2-elf/5.3.0/../../../../../H-x86_64-pc-linux-gnu/nios2-elf/lib/mhw-mulx/libc.a(lib_a-fclose.o)
 .debug_frame   0x000000000000139c       0x80 /opt/intelFPGA/18.1/nios2eds/bin/gnu/H-x86_64-pc-linux-gnu/bin/../lib/gcc/nios2-elf/5.3.0/../../../../../H-x86_64-pc-linux-gnu/nios2-elf/lib/mhw-mulx/libc.a(lib_a-fputwc.o)
 .debug_frame   0x000000000000141c       0x38 /opt/intelFPGA/18.1/nios2eds/bin/gnu/H-x86_64-pc-linux-gnu/bin/../lib/gcc/nios2-elf/5.3.0/../../../../../H-x86_64-pc-linux-gnu/nios2-elf/lib/mhw-mulx/libc.a(lib_a-fstatr.o)
 .debug_frame   0x0000000000001454       0x38 /opt/intelFPGA/18.1/nios2eds/bin/gnu/H-x86_64-pc-linux-gnu/bin/../lib/gcc/nios2-elf/5.3.0/../../../../../H-x86_64-pc-linux-gnu/nios2-elf/lib/mhw-mulx/libc.a(lib_a-isattyr.o)
 .debug_frame   0x000000000000148c       0x38 /opt/intelFPGA/18.1/nios2eds/bin/gnu/H-x86_64-pc-linux-gnu/bin/../lib/gcc/nios2-elf/5.3.0/../../../../../H-x86_64-pc-linux-gnu/nios2-elf/lib/mhw-mulx/libc.a(lib_a-lseekr.o)
 .debug_frame   0x00000000000014c4       0x38 /opt/intelFPGA/18.1/nios2eds/bin/gnu/H-x86_64-pc-linux-gnu/bin/../lib/gcc/nios2-elf/5.3.0/../../../../../H-x86_64-pc-linux-gnu/nios2-elf/lib/mhw-mulx/libc.a(lib_a-readr.o)
 .debug_frame   0x00000000000014fc       0x50 /opt/intelFPGA/18.1/nios2eds/bin/gnu/H-x86_64-pc-linux-gnu/bin/../lib/gcc/nios2-elf/5.3.0/../../../../../H-x86_64-pc-linux-gnu/nios2-elf/lib/mhw-mulx/libc.a(lib_a-wbuf.o)
 .debug_frame   0x000000000000154c       0x70 /opt/intelFPGA/18.1/nios2eds/bin/gnu/H-x86_64-pc-linux-gnu/bin/../lib/gcc/nios2-elf/5.3.0/../../../../../H-x86_64-pc-linux-gnu/nios2-elf/lib/mhw-mulx/libc.a(lib_a-wcrtomb.o)
 .debug_frame   0x00000000000015bc       0x44 /opt/intelFPGA/18.1/nios2eds/bin/gnu/H-x86_64-pc-linux-gnu/bin/../lib/gcc/nios2-elf/5.3.0/../../../../../H-x86_64-pc-linux-gnu/nios2-elf/lib/mhw-mulx/libc.a(lib_a-wctomb_r.o)
 .debug_frame   0x0000000000001600       0x54 /opt/intelFPGA/18.1/nios2eds/bin/gnu/H-x86_64-pc-linux-gnu/bin/../lib/gcc/nios2-elf/5.3.0/mhw-mulx/libgcc.a(_udivdi3.o)
 .debug_frame   0x0000000000001654       0x54 /opt/intelFPGA/18.1/nios2eds/bin/gnu/H-x86_64-pc-linux-gnu/bin/../lib/gcc/nios2-elf/5.3.0/mhw-mulx/libgcc.a(_umoddi3.o)
 .debug_frame   0x00000000000016a8       0x50 /opt/intelFPGA/18.1/nios2eds/bin/gnu/H-x86_64-pc-linux-gnu/bin/../lib/gcc/nios2-elf/5.3.0/mhw-mulx/libgcc.a(lib2-divmod.o)
 .debug_frame   0x00000000000016f8       0x40 /opt/intelFPGA/18.1/nios2eds/bin/gnu/H-x86_64-pc-linux-gnu/bin/../lib/gcc/nios2-elf/5.3.0/mhw-mulx/libgcc.a(adddf3.o)
 .debug_frame   0x0000000000001738       0x58 /opt/intelFPGA/18.1/nios2eds/bin/gnu/H-x86_64-pc-linux-gnu/bin/../lib/gcc/nios2-elf/5.3.0/mhw-mulx/libgcc.a(divdf3.o)
 .debug_frame   0x0000000000001790       0x20 /opt/intelFPGA/18.1/nios2eds/bin/gnu/H-x86_64-pc-linux-gnu/bin/../lib/gcc/nios2-elf/5.3.0/mhw-mulx/libgcc.a(eqdf2.o)
 .debug_frame   0x00000000000017b0       0x20 /opt/intelFPGA/18.1/nios2eds/bin/gnu/H-x86_64-pc-linux-gnu/bin/../lib/gcc/nios2-elf/5.3.0/mhw-mulx/libgcc.a(gedf2.o)
 .debug_frame   0x00000000000017d0       0x20 /opt/intelFPGA/18.1/nios2eds/bin/gnu/H-x86_64-pc-linux-gnu/bin/../lib/gcc/nios2-elf/5.3.0/mhw-mulx/libgcc.a(ledf2.o)
 .debug_frame   0x00000000000017f0       0x58 /opt/intelFPGA/18.1/nios2eds/bin/gnu/H-x86_64-pc-linux-gnu/bin/../lib/gcc/nios2-elf/5.3.0/mhw-mulx/libgcc.a(muldf3.o)
 .debug_frame   0x0000000000001848       0x44 /opt/intelFPGA/18.1/nios2eds/bin/gnu/H-x86_64-pc-linux-gnu/bin/../lib/gcc/nios2-elf/5.3.0/mhw-mulx/libgcc.a(subdf3.o)
 .debug_frame   0x000000000000188c       0x20 /opt/intelFPGA/18.1/nios2eds/bin/gnu/H-x86_64-pc-linux-gnu/bin/../lib/gcc/nios2-elf/5.3.0/mhw-mulx/libgcc.a(fixdfsi.o)
 .debug_frame   0x00000000000018ac       0x38 /opt/intelFPGA/18.1/nios2eds/bin/gnu/H-x86_64-pc-linux-gnu/bin/../lib/gcc/nios2-elf/5.3.0/mhw-mulx/libgcc.a(floatsidf.o)
 .debug_frame   0x00000000000018e4       0x34 /opt/intelFPGA/18.1/nios2eds/bin/gnu/H-x86_64-pc-linux-gnu/bin/../lib/gcc/nios2-elf/5.3.0/mhw-mulx/libgcc.a(floatunsidf.o)
 .debug_frame   0x0000000000001918       0x20 /opt/intelFPGA/18.1/nios2eds/bin/gnu/H-x86_64-pc-linux-gnu/bin/../lib/gcc/nios2-elf/5.3.0/mhw-mulx/libgcc.a(_clzsi2.o)
 .debug_frame   0x0000000000001938       0x60 ../ucos2nios2_bsp//libucosii_bsp.a(alt_close.o)
 .debug_frame   0x0000000000001998       0x34 ../ucos2nios2_bsp//libucosii_bsp.a(alt_dev.o)
 .debug_frame   0x00000000000019cc       0x60 ../ucos2nios2_bsp//libucosii_bsp.a(alt_fstat.o)
 .debug_frame   0x0000000000001a2c       0x60 ../ucos2nios2_bsp//libucosii_bsp.a(alt_isatty.o)
 .debug_frame   0x0000000000001a8c       0x5c ../ucos2nios2_bsp//libucosii_bsp.a(alt_load.o)
 .debug_frame   0x0000000000001ae8       0x60 ../ucos2nios2_bsp//libucosii_bsp.a(alt_lseek.o)
 .debug_frame   0x0000000000001b48       0x2c ../ucos2nios2_bsp//libucosii_bsp.a(alt_main.o)
 .debug_frame   0x0000000000001b74       0x60 ../ucos2nios2_bsp//libucosii_bsp.a(alt_read.o)
 .debug_frame   0x0000000000001bd4       0x34 ../ucos2nios2_bsp//libucosii_bsp.a(alt_release_fd.o)
 .debug_frame   0x0000000000001c08       0x34 ../ucos2nios2_bsp//libucosii_bsp.a(alt_sbrk.o)
 .debug_frame   0x0000000000001c3c       0x60 ../ucos2nios2_bsp//libucosii_bsp.a(alt_write.o)
 .debug_frame   0x0000000000001c9c       0x60 ../ucos2nios2_bsp//libucosii_bsp.a(alt_env_lock.o)
 .debug_frame   0x0000000000001cfc       0x64 ../ucos2nios2_bsp//libucosii_bsp.a(alt_malloc_lock.o)
 .debug_frame   0x0000000000001d60      0x534 ../ucos2nios2_bsp//libucosii_bsp.a(os_core.o)
 .debug_frame   0x0000000000002294       0x34 ../ucos2nios2_bsp//libucosii_bsp.a(os_dbg.o)
 .debug_frame   0x00000000000022c8      0x200 ../ucos2nios2_bsp//libucosii_bsp.a(os_flag.o)
 .debug_frame   0x00000000000024c8      0x148 ../ucos2nios2_bsp//libucosii_bsp.a(os_mbox.o)
 .debug_frame   0x0000000000002610      0x118 ../ucos2nios2_bsp//libucosii_bsp.a(os_mem.o)
 .debug_frame   0x0000000000002728      0x1bc ../ucos2nios2_bsp//libucosii_bsp.a(os_q.o)
 .debug_frame   0x00000000000028e4      0x144 ../ucos2nios2_bsp//libucosii_bsp.a(os_sem.o)
 .debug_frame   0x0000000000002a28      0x1e4 ../ucos2nios2_bsp//libucosii_bsp.a(os_task.o)
 .debug_frame   0x0000000000002c0c       0xd0 ../ucos2nios2_bsp//libucosii_bsp.a(os_time.o)
 .debug_frame   0x0000000000002cdc       0x88 ../ucos2nios2_bsp//libucosii_bsp.a(alt_sys_init.o)
 .debug_frame   0x0000000000002d64      0x520 ../ucos2nios2_bsp//libucosii_bsp.a(Altera_UP_SD_Card_Avalon_Interface.o)
 .debug_frame   0x0000000000003284       0xb0 ../ucos2nios2_bsp//libucosii_bsp.a(altera_avalon_jtag_uart_fd.o)
 .debug_frame   0x0000000000003334       0xac ../ucos2nios2_bsp//libucosii_bsp.a(altera_avalon_jtag_uart_init.o)
 .debug_frame   0x00000000000033e0       0x34 ../ucos2nios2_bsp//libucosii_bsp.a(altera_avalon_jtag_uart_ioctl.o)
 .debug_frame   0x0000000000003414       0x38 ../ucos2nios2_bsp//libucosii_bsp.a(altera_avalon_jtag_uart_read.o)
 .debug_frame   0x000000000000344c       0x38 ../ucos2nios2_bsp//libucosii_bsp.a(altera_avalon_jtag_uart_write.o)
 .debug_frame   0x0000000000003484       0x60 ../ucos2nios2_bsp//libucosii_bsp.a(altera_avalon_timer_sc.o)
 .debug_frame   0x00000000000034e4      0x2ac ../ucos2nios2_bsp//libucosii_bsp.a(altera_up_avalon_audio.o)
 .debug_frame   0x0000000000003790      0x204 ../ucos2nios2_bsp//libucosii_bsp.a(altera_up_avalon_character_lcd.o)
 .debug_frame   0x0000000000003994      0x188 ../ucos2nios2_bsp//libucosii_bsp.a(altera_up_avalon_irda.o)
 .debug_frame   0x0000000000003b1c      0x2c0 ../ucos2nios2_bsp//libucosii_bsp.a(altera_up_avalon_ps2.o)
 .debug_frame   0x0000000000003ddc      0x188 ../ucos2nios2_bsp//libucosii_bsp.a(altera_up_avalon_rs232.o)
 .debug_frame   0x0000000000003f64      0x120 ../ucos2nios2_bsp//libucosii_bsp.a(altera_up_ps2_keyboard.o)
 .debug_frame   0x0000000000004084       0x34 ../ucos2nios2_bsp//libucosii_bsp.a(alt_alarm_start.o)
 .debug_frame   0x00000000000040b8       0x34 ../ucos2nios2_bsp//libucosii_bsp.a(alt_dcache_flush_all.o)
 .debug_frame   0x00000000000040ec       0x60 ../ucos2nios2_bsp//libucosii_bsp.a(alt_dev_llist_insert.o)
 .debug_frame   0x000000000000414c       0x38 ../ucos2nios2_bsp//libucosii_bsp.a(alt_do_ctors.o)
 .debug_frame   0x0000000000004184       0x38 ../ucos2nios2_bsp//libucosii_bsp.a(alt_do_dtors.o)
 .debug_frame   0x00000000000041bc       0x38 ../ucos2nios2_bsp//libucosii_bsp.a(alt_find_dev.o)
 .debug_frame   0x00000000000041f4       0x38 ../ucos2nios2_bsp//libucosii_bsp.a(alt_icache_flush_all.o)
 .debug_frame   0x000000000000422c       0x60 ../ucos2nios2_bsp//libucosii_bsp.a(alt_io_redirect.o)
 .debug_frame   0x000000000000428c       0x34 ../ucos2nios2_bsp//libucosii_bsp.a(alt_irq_register.o)
 .debug_frame   0x00000000000042c0       0x84 ../ucos2nios2_bsp//libucosii_bsp.a(alt_open.o)
 .debug_frame   0x0000000000004344       0x5c ../ucos2nios2_bsp//libucosii_bsp.a(alt_tick.o)
 .debug_frame   0x00000000000043a0       0x34 ../ucos2nios2_bsp//libucosii_bsp.a(altera_nios2_gen2_irq.o)
 .debug_frame   0x00000000000043d4      0x17c ../ucos2nios2_bsp//libucosii_bsp.a(os_cpu_c.o)
 .debug_frame   0x0000000000004550       0x38 ../ucos2nios2_bsp//libucosii_bsp.a(alt_find_file.o)
 .debug_frame   0x0000000000004588       0x38 ../ucos2nios2_bsp//libucosii_bsp.a(alt_get_fd.o)
 .debug_frame   0x00000000000045c0       0x34 ../ucos2nios2_bsp//libucosii_bsp.a(alt_icache_flush.o)
 .debug_frame   0x00000000000045f4       0x38 ../ucos2nios2_bsp//libucosii_bsp.a(alt_irq_handler.o)
 .debug_frame   0x000000000000462c       0x5c ../ucos2nios2_bsp//libucosii_bsp.a(alt_instruction_exception_entry.o)
 .debug_frame   0x0000000000004688       0x20 /opt/intelFPGA/18.1/nios2eds/bin/gnu/H-x86_64-pc-linux-gnu/bin/../lib/gcc/nios2-elf/5.3.0/../../../../../H-x86_64-pc-linux-gnu/nios2-elf/lib/mhw-mulx/libc.a(lib_a-atexit.o)
 .debug_frame   0x00000000000046a8       0x28 /opt/intelFPGA/18.1/nios2eds/bin/gnu/H-x86_64-pc-linux-gnu/bin/../lib/gcc/nios2-elf/5.3.0/../../../../../H-x86_64-pc-linux-gnu/nios2-elf/lib/mhw-mulx/libc.a(lib_a-exit.o)
 .debug_frame   0x00000000000046d0       0x20 /opt/intelFPGA/18.1/nios2eds/bin/gnu/H-x86_64-pc-linux-gnu/bin/../lib/gcc/nios2-elf/5.3.0/../../../../../H-x86_64-pc-linux-gnu/nios2-elf/lib/mhw-mulx/libc.a(lib_a-memcmp.o)
 .debug_frame   0x00000000000046f0       0x38 /opt/intelFPGA/18.1/nios2eds/bin/gnu/H-x86_64-pc-linux-gnu/bin/../lib/gcc/nios2-elf/5.3.0/../../../../../H-x86_64-pc-linux-gnu/nios2-elf/lib/mhw-mulx/libc.a(lib_a-__atexit.o)
 .debug_frame   0x0000000000004728       0x54 /opt/intelFPGA/18.1/nios2eds/bin/gnu/H-x86_64-pc-linux-gnu/bin/../lib/gcc/nios2-elf/5.3.0/../../../../../H-x86_64-pc-linux-gnu/nios2-elf/lib/mhw-mulx/libc.a(lib_a-__call_atexit.o)
 .debug_frame   0x000000000000477c       0x2c ../ucos2nios2_bsp//libucosii_bsp.a(alt_exit.o)

.debug_str      0x0000000000000000     0x686f
 *(.debug_str)
 .debug_str     0x0000000000000000      0x640 obj/default/pong.o
                                        0x709 (size before relaxing)
 .debug_str     0x0000000000000640      0x16f obj/default/vga_stuff.o
                                        0x31e (size before relaxing)
 .debug_str     0x00000000000007af      0x490 /opt/intelFPGA/18.1/nios2eds/bin/gnu/H-x86_64-pc-linux-gnu/bin/../lib/gcc/nios2-elf/5.3.0/../../../../../H-x86_64-pc-linux-gnu/nios2-elf/lib/mhw-mulx/libc.a(lib_a-malloc.o)
                                        0x5c6 (size before relaxing)
 .debug_str     0x0000000000000c3f      0x226 /opt/intelFPGA/18.1/nios2eds/bin/gnu/H-x86_64-pc-linux-gnu/bin/../lib/gcc/nios2-elf/5.3.0/../../../../../H-x86_64-pc-linux-gnu/nios2-elf/lib/mhw-mulx/libc.a(lib_a-mallocr.o)
                                        0x7b7 (size before relaxing)
 .debug_str     0x0000000000000e65      0x11f /opt/intelFPGA/18.1/nios2eds/bin/gnu/H-x86_64-pc-linux-gnu/bin/../lib/gcc/nios2-elf/5.3.0/../../../../../H-x86_64-pc-linux-gnu/nios2-elf/lib/mhw-mulx/libc.a(lib_a-printf.o)
                                        0x5f8 (size before relaxing)
 .debug_str     0x0000000000000f84       0xaf /opt/intelFPGA/18.1/nios2eds/bin/gnu/H-x86_64-pc-linux-gnu/bin/../lib/gcc/nios2-elf/5.3.0/../../../../../H-x86_64-pc-linux-gnu/nios2-elf/lib/mhw-mulx/libc.a(lib_a-puts.o)
                                        0x619 (size before relaxing)
 .debug_str     0x0000000000001033       0xdc /opt/intelFPGA/18.1/nios2eds/bin/gnu/H-x86_64-pc-linux-gnu/bin/../lib/gcc/nios2-elf/5.3.0/../../../../../H-x86_64-pc-linux-gnu/nios2-elf/lib/mhw-mulx/libc.a(lib_a-sbrkr.o)
                                        0x5a8 (size before relaxing)
 .debug_str     0x000000000000110f       0x6b /opt/intelFPGA/18.1/nios2eds/bin/gnu/H-x86_64-pc-linux-gnu/bin/../lib/gcc/nios2-elf/5.3.0/../../../../../H-x86_64-pc-linux-gnu/nios2-elf/lib/mhw-mulx/libc.a(lib_a-snprintf.o)
                                        0x5fc (size before relaxing)
 .debug_str     0x000000000000117a       0xe4 /opt/intelFPGA/18.1/nios2eds/bin/gnu/H-x86_64-pc-linux-gnu/bin/../lib/gcc/nios2-elf/5.3.0/../../../../../H-x86_64-pc-linux-gnu/nios2-elf/lib/mhw-mulx/libc.a(lib_a-strcat.o)
                                        0x1ec (size before relaxing)
 .debug_str     0x000000000000125e       0x5f /opt/intelFPGA/18.1/nios2eds/bin/gnu/H-x86_64-pc-linux-gnu/bin/../lib/gcc/nios2-elf/5.3.0/../../../../../H-x86_64-pc-linux-gnu/nios2-elf/lib/mhw-mulx/libc.a(lib_a-strcpy.o)
                                        0x1fc (size before relaxing)
 .debug_str     0x00000000000012bd       0x4a /opt/intelFPGA/18.1/nios2eds/bin/gnu/H-x86_64-pc-linux-gnu/bin/../lib/gcc/nios2-elf/5.3.0/../../../../../H-x86_64-pc-linux-gnu/nios2-elf/lib/mhw-mulx/libc.a(lib_a-strlen.o)
                                        0x1f4 (size before relaxing)
 .debug_str     0x0000000000001307      0x1f1 /opt/intelFPGA/18.1/nios2eds/bin/gnu/H-x86_64-pc-linux-gnu/bin/../lib/gcc/nios2-elf/5.3.0/../../../../../H-x86_64-pc-linux-gnu/nios2-elf/lib/mhw-mulx/libc.a(lib_a-svfprintf.o)
                                        0x7dc (size before relaxing)
 .debug_str     0x00000000000014f8       0x36 /opt/intelFPGA/18.1/nios2eds/bin/gnu/H-x86_64-pc-linux-gnu/bin/../lib/gcc/nios2-elf/5.3.0/../../../../../H-x86_64-pc-linux-gnu/nios2-elf/lib/mhw-mulx/libc.a(lib_a-vfprintf.o)
                                        0x83a (size before relaxing)
 .debug_str     0x000000000000152e       0x49 /opt/intelFPGA/18.1/nios2eds/bin/gnu/H-x86_64-pc-linux-gnu/bin/../lib/gcc/nios2-elf/5.3.0/../../../../../H-x86_64-pc-linux-gnu/nios2-elf/lib/mhw-mulx/libc.a(lib_a-wsetup.o)
                                        0x5d1 (size before relaxing)
 .debug_str     0x0000000000001577      0x160 /opt/intelFPGA/18.1/nios2eds/bin/gnu/H-x86_64-pc-linux-gnu/bin/../lib/gcc/nios2-elf/5.3.0/../../../../../H-x86_64-pc-linux-gnu/nios2-elf/lib/mhw-mulx/libc.a(lib_a-dtoa.o)
                                        0x6f1 (size before relaxing)
 .debug_str     0x00000000000016d7       0x7f /opt/intelFPGA/18.1/nios2eds/bin/gnu/H-x86_64-pc-linux-gnu/bin/../lib/gcc/nios2-elf/5.3.0/../../../../../H-x86_64-pc-linux-gnu/nios2-elf/lib/mhw-mulx/libc.a(lib_a-fflush.o)
                                        0x612 (size before relaxing)
 .debug_str     0x0000000000001756      0x11c /opt/intelFPGA/18.1/nios2eds/bin/gnu/H-x86_64-pc-linux-gnu/bin/../lib/gcc/nios2-elf/5.3.0/../../../../../H-x86_64-pc-linux-gnu/nios2-elf/lib/mhw-mulx/libc.a(lib_a-findfp.o)
                                        0x6c8 (size before relaxing)
 .debug_str     0x0000000000001872       0x34 /opt/intelFPGA/18.1/nios2eds/bin/gnu/H-x86_64-pc-linux-gnu/bin/../lib/gcc/nios2-elf/5.3.0/../../../../../H-x86_64-pc-linux-gnu/nios2-elf/lib/mhw-mulx/libc.a(lib_a-freer.o)
                                        0x701 (size before relaxing)
 .debug_str     0x00000000000018a6       0x6e /opt/intelFPGA/18.1/nios2eds/bin/gnu/H-x86_64-pc-linux-gnu/bin/../lib/gcc/nios2-elf/5.3.0/../../../../../H-x86_64-pc-linux-gnu/nios2-elf/lib/mhw-mulx/libc.a(lib_a-fvwrite.o)
                                        0x644 (size before relaxing)
 .debug_str     0x0000000000001914       0x4a /opt/intelFPGA/18.1/nios2eds/bin/gnu/H-x86_64-pc-linux-gnu/bin/../lib/gcc/nios2-elf/5.3.0/../../../../../H-x86_64-pc-linux-gnu/nios2-elf/lib/mhw-mulx/libc.a(lib_a-fwalk.o)
                                        0x5b7 (size before relaxing)
 .debug_str     0x000000000000195e       0x48 /opt/intelFPGA/18.1/nios2eds/bin/gnu/H-x86_64-pc-linux-gnu/bin/../lib/gcc/nios2-elf/5.3.0/../../../../../H-x86_64-pc-linux-gnu/nios2-elf/lib/mhw-mulx/libc.a(lib_a-impure.o)
                                        0x5b2 (size before relaxing)
 .debug_str     0x00000000000019a6       0x3f /opt/intelFPGA/18.1/nios2eds/bin/gnu/H-x86_64-pc-linux-gnu/bin/../lib/gcc/nios2-elf/5.3.0/../../../../../H-x86_64-pc-linux-gnu/nios2-elf/lib/mhw-mulx/libc.a(lib_a-int_errno.o)
                                        0x1da (size before relaxing)
 .debug_str     0x00000000000019e5      0x29f /opt/intelFPGA/18.1/nios2eds/bin/gnu/H-x86_64-pc-linux-gnu/bin/../lib/gcc/nios2-elf/5.3.0/../../../../../H-x86_64-pc-linux-gnu/nios2-elf/lib/mhw-mulx/libc.a(lib_a-locale.o)
                                        0x80f (size before relaxing)
 .debug_str     0x0000000000001c84      0x124 /opt/intelFPGA/18.1/nios2eds/bin/gnu/H-x86_64-pc-linux-gnu/bin/../lib/gcc/nios2-elf/5.3.0/../../../../../H-x86_64-pc-linux-gnu/nios2-elf/lib/mhw-mulx/libc.a(lib_a-makebuf.o)
                                        0x6b4 (size before relaxing)
 .debug_str     0x0000000000001da8       0x4b /opt/intelFPGA/18.1/nios2eds/bin/gnu/H-x86_64-pc-linux-gnu/bin/../lib/gcc/nios2-elf/5.3.0/../../../../../H-x86_64-pc-linux-gnu/nios2-elf/lib/mhw-mulx/libc.a(lib_a-memchr.o)
                                        0x1fb (size before relaxing)
 .debug_str     0x0000000000001df3       0x42 /opt/intelFPGA/18.1/nios2eds/bin/gnu/H-x86_64-pc-linux-gnu/bin/../lib/gcc/nios2-elf/5.3.0/../../../../../H-x86_64-pc-linux-gnu/nios2-elf/lib/mhw-mulx/libc.a(lib_a-memcpy.o)
                                        0x208 (size before relaxing)
 .debug_str     0x0000000000001e35       0x47 /opt/intelFPGA/18.1/nios2eds/bin/gnu/H-x86_64-pc-linux-gnu/bin/../lib/gcc/nios2-elf/5.3.0/../../../../../H-x86_64-pc-linux-gnu/nios2-elf/lib/mhw-mulx/libc.a(lib_a-memmove.o)
                                        0x214 (size before relaxing)
 .debug_str     0x0000000000001e7c       0x3d /opt/intelFPGA/18.1/nios2eds/bin/gnu/H-x86_64-pc-linux-gnu/bin/../lib/gcc/nios2-elf/5.3.0/../../../../../H-x86_64-pc-linux-gnu/nios2-elf/lib/mhw-mulx/libc.a(lib_a-memset.o)
                                        0x1f5 (size before relaxing)
 .debug_str     0x0000000000001eb9       0xa7 /opt/intelFPGA/18.1/nios2eds/bin/gnu/H-x86_64-pc-linux-gnu/bin/../lib/gcc/nios2-elf/5.3.0/../../../../../H-x86_64-pc-linux-gnu/nios2-elf/lib/mhw-mulx/libc.a(lib_a-mprec.o)
                                        0x6ab (size before relaxing)
 .debug_str     0x0000000000001f60       0x49 /opt/intelFPGA/18.1/nios2eds/bin/gnu/H-x86_64-pc-linux-gnu/bin/../lib/gcc/nios2-elf/5.3.0/../../../../../H-x86_64-pc-linux-gnu/nios2-elf/lib/mhw-mulx/libc.a(lib_a-reallocr.o)
                                        0x693 (size before relaxing)
 .debug_str     0x0000000000001fa9       0xd1 /opt/intelFPGA/18.1/nios2eds/bin/gnu/H-x86_64-pc-linux-gnu/bin/../lib/gcc/nios2-elf/5.3.0/../../../../../H-x86_64-pc-linux-gnu/nios2-elf/lib/mhw-mulx/libc.a(lib_a-s_fpclassify.o)
                                        0x1ff (size before relaxing)
 .debug_str     0x000000000000207a       0x9b /opt/intelFPGA/18.1/nios2eds/bin/gnu/H-x86_64-pc-linux-gnu/bin/../lib/gcc/nios2-elf/5.3.0/../../../../../H-x86_64-pc-linux-gnu/nios2-elf/lib/mhw-mulx/libc.a(lib_a-stdio.o)
                                        0x606 (size before relaxing)
 .debug_str     0x0000000000002115       0x3d /opt/intelFPGA/18.1/nios2eds/bin/gnu/H-x86_64-pc-linux-gnu/bin/../lib/gcc/nios2-elf/5.3.0/../../../../../H-x86_64-pc-linux-gnu/nios2-elf/lib/mhw-mulx/libc.a(lib_a-strcmp.o)
                                        0x1da (size before relaxing)
 .debug_str     0x0000000000002152       0x19 /opt/intelFPGA/18.1/nios2eds/bin/gnu/H-x86_64-pc-linux-gnu/bin/../lib/gcc/nios2-elf/5.3.0/../../../../../H-x86_64-pc-linux-gnu/nios2-elf/lib/mhw-mulx/libc.a(lib_a-svfiprintf.o)
                                        0x741 (size before relaxing)
 .debug_str     0x000000000000216b       0x3f /opt/intelFPGA/18.1/nios2eds/bin/gnu/H-x86_64-pc-linux-gnu/bin/../lib/gcc/nios2-elf/5.3.0/../../../../../H-x86_64-pc-linux-gnu/nios2-elf/lib/mhw-mulx/libc.a(lib_a-vfiprintf.o)
                                        0x78e (size before relaxing)
 .debug_str     0x00000000000021aa       0x3c /opt/intelFPGA/18.1/nios2eds/bin/gnu/H-x86_64-pc-linux-gnu/bin/../lib/gcc/nios2-elf/5.3.0/../../../../../H-x86_64-pc-linux-gnu/nios2-elf/lib/mhw-mulx/libc.a(lib_a-writer.o)
                                        0x5ac (size before relaxing)
 .debug_str     0x00000000000021e6       0x3c /opt/intelFPGA/18.1/nios2eds/bin/gnu/H-x86_64-pc-linux-gnu/bin/../lib/gcc/nios2-elf/5.3.0/../../../../../H-x86_64-pc-linux-gnu/nios2-elf/lib/mhw-mulx/libc.a(closer.o)
                                        0x59c (size before relaxing)
 .debug_str     0x0000000000002222        0xf /opt/intelFPGA/18.1/nios2eds/bin/gnu/H-x86_64-pc-linux-gnu/bin/../lib/gcc/nios2-elf/5.3.0/../../../../../H-x86_64-pc-linux-gnu/nios2-elf/lib/mhw-mulx/libc.a(lib_a-callocr.o)
                                        0x5eb (size before relaxing)
 .debug_str     0x0000000000002231       0x46 /opt/intelFPGA/18.1/nios2eds/bin/gnu/H-x86_64-pc-linux-gnu/bin/../lib/gcc/nios2-elf/5.3.0/../../../../../H-x86_64-pc-linux-gnu/nios2-elf/lib/mhw-mulx/libc.a(lib_a-fclose.o)
                                        0x5ff (size before relaxing)
 .debug_str     0x0000000000002277       0x5a /opt/intelFPGA/18.1/nios2eds/bin/gnu/H-x86_64-pc-linux-gnu/bin/../lib/gcc/nios2-elf/5.3.0/../../../../../H-x86_64-pc-linux-gnu/nios2-elf/lib/mhw-mulx/libc.a(lib_a-fputwc.o)
                                        0x603 (size before relaxing)
 .debug_str     0x00000000000022d1       0x42 /opt/intelFPGA/18.1/nios2eds/bin/gnu/H-x86_64-pc-linux-gnu/bin/../lib/gcc/nios2-elf/5.3.0/../../../../../H-x86_64-pc-linux-gnu/nios2-elf/lib/mhw-mulx/libc.a(lib_a-fstatr.o)
                                        0x688 (size before relaxing)
 .debug_str     0x0000000000002313       0x44 /opt/intelFPGA/18.1/nios2eds/bin/gnu/H-x86_64-pc-linux-gnu/bin/../lib/gcc/nios2-elf/5.3.0/../../../../../H-x86_64-pc-linux-gnu/nios2-elf/lib/mhw-mulx/libc.a(lib_a-isattyr.o)
                                        0x59f (size before relaxing)
 .debug_str     0x0000000000002357       0x3c /opt/intelFPGA/18.1/nios2eds/bin/gnu/H-x86_64-pc-linux-gnu/bin/../lib/gcc/nios2-elf/5.3.0/../../../../../H-x86_64-pc-linux-gnu/nios2-elf/lib/mhw-mulx/libc.a(lib_a-lseekr.o)
                                        0x5a3 (size before relaxing)
 .debug_str     0x0000000000002393       0x3b /opt/intelFPGA/18.1/nios2eds/bin/gnu/H-x86_64-pc-linux-gnu/bin/../lib/gcc/nios2-elf/5.3.0/../../../../../H-x86_64-pc-linux-gnu/nios2-elf/lib/mhw-mulx/libc.a(lib_a-readr.o)
                                        0x5a9 (size before relaxing)
 .debug_str     0x00000000000023ce       0x42 /opt/intelFPGA/18.1/nios2eds/bin/gnu/H-x86_64-pc-linux-gnu/bin/../lib/gcc/nios2-elf/5.3.0/../../../../../H-x86_64-pc-linux-gnu/nios2-elf/lib/mhw-mulx/libc.a(lib_a-wbuf.o)
                                        0x5d6 (size before relaxing)
 .debug_str     0x0000000000002410       0x56 /opt/intelFPGA/18.1/nios2eds/bin/gnu/H-x86_64-pc-linux-gnu/bin/../lib/gcc/nios2-elf/5.3.0/../../../../../H-x86_64-pc-linux-gnu/nios2-elf/lib/mhw-mulx/libc.a(lib_a-wcrtomb.o)
                                        0x5e9 (size before relaxing)
 .debug_str     0x0000000000002466       0x5f /opt/intelFPGA/18.1/nios2eds/bin/gnu/H-x86_64-pc-linux-gnu/bin/../lib/gcc/nios2-elf/5.3.0/../../../../../H-x86_64-pc-linux-gnu/nios2-elf/lib/mhw-mulx/libc.a(lib_a-wctomb_r.o)
                                        0x5f2 (size before relaxing)
 .debug_str     0x00000000000024c5      0x200 /opt/intelFPGA/18.1/nios2eds/bin/gnu/H-x86_64-pc-linux-gnu/bin/../lib/gcc/nios2-elf/5.3.0/mhw-mulx/libgcc.a(_udivdi3.o)
                                        0x299 (size before relaxing)
 .debug_str     0x00000000000026c5        0xa /opt/intelFPGA/18.1/nios2eds/bin/gnu/H-x86_64-pc-linux-gnu/bin/../lib/gcc/nios2-elf/5.3.0/mhw-mulx/libgcc.a(_umoddi3.o)
                                        0x299 (size before relaxing)
 .debug_str     0x00000000000026cf       0xfd /opt/intelFPGA/18.1/nios2eds/bin/gnu/H-x86_64-pc-linux-gnu/bin/../lib/gcc/nios2-elf/5.3.0/mhw-mulx/libgcc.a(lib2-divmod.o)
                                        0x1cf (size before relaxing)
 .debug_str     0x00000000000027cc      0x119 /opt/intelFPGA/18.1/nios2eds/bin/gnu/H-x86_64-pc-linux-gnu/bin/../lib/gcc/nios2-elf/5.3.0/mhw-mulx/libgcc.a(adddf3.o)
                                        0x2a6 (size before relaxing)
 .debug_str     0x00000000000028e5      0x126 /opt/intelFPGA/18.1/nios2eds/bin/gnu/H-x86_64-pc-linux-gnu/bin/../lib/gcc/nios2-elf/5.3.0/mhw-mulx/libgcc.a(divdf3.o)
                                        0x35e (size before relaxing)
 .debug_str     0x0000000000002a0b       0x37 /opt/intelFPGA/18.1/nios2eds/bin/gnu/H-x86_64-pc-linux-gnu/bin/../lib/gcc/nios2-elf/5.3.0/mhw-mulx/libgcc.a(eqdf2.o)
                                        0x20c (size before relaxing)
 .debug_str     0x0000000000002a42       0x5b /opt/intelFPGA/18.1/nios2eds/bin/gnu/H-x86_64-pc-linux-gnu/bin/../lib/gcc/nios2-elf/5.3.0/mhw-mulx/libgcc.a(gedf2.o)
                                        0x230 (size before relaxing)
 .debug_str     0x0000000000002a9d       0x37 /opt/intelFPGA/18.1/nios2eds/bin/gnu/H-x86_64-pc-linux-gnu/bin/../lib/gcc/nios2-elf/5.3.0/mhw-mulx/libgcc.a(ledf2.o)
                                        0x230 (size before relaxing)
 .debug_str     0x0000000000002ad4      0x15e /opt/intelFPGA/18.1/nios2eds/bin/gnu/H-x86_64-pc-linux-gnu/bin/../lib/gcc/nios2-elf/5.3.0/mhw-mulx/libgcc.a(muldf3.o)
                                        0x3bf (size before relaxing)
 .debug_str     0x0000000000002c32       0x39 /opt/intelFPGA/18.1/nios2eds/bin/gnu/H-x86_64-pc-linux-gnu/bin/../lib/gcc/nios2-elf/5.3.0/mhw-mulx/libgcc.a(subdf3.o)
                                        0x2a6 (size before relaxing)
 .debug_str     0x0000000000002c6b       0x4e /opt/intelFPGA/18.1/nios2eds/bin/gnu/H-x86_64-pc-linux-gnu/bin/../lib/gcc/nios2-elf/5.3.0/mhw-mulx/libgcc.a(fixdfsi.o)
                                        0x228 (size before relaxing)
 .debug_str     0x0000000000002cb9       0x6c /opt/intelFPGA/18.1/nios2eds/bin/gnu/H-x86_64-pc-linux-gnu/bin/../lib/gcc/nios2-elf/5.3.0/mhw-mulx/libgcc.a(floatsidf.o)
                                        0x23f (size before relaxing)
 .debug_str     0x0000000000002d25       0x43 /opt/intelFPGA/18.1/nios2eds/bin/gnu/H-x86_64-pc-linux-gnu/bin/../lib/gcc/nios2-elf/5.3.0/mhw-mulx/libgcc.a(floatunsidf.o)
                                        0x23c (size before relaxing)
 .debug_str     0x0000000000002d68      0x1e0 /opt/intelFPGA/18.1/nios2eds/bin/gnu/H-x86_64-pc-linux-gnu/bin/../lib/gcc/nios2-elf/5.3.0/mhw-mulx/libgcc.a(_clz.o)
 .debug_str     0x0000000000002d68        0x9 /opt/intelFPGA/18.1/nios2eds/bin/gnu/H-x86_64-pc-linux-gnu/bin/../lib/gcc/nios2-elf/5.3.0/mhw-mulx/libgcc.a(_clzsi2.o)
                                        0x1fd (size before relaxing)
 .debug_str     0x0000000000002d71       0x9a ../ucos2nios2_bsp//libucosii_bsp.a(alt_close.o)
                                        0x285 (size before relaxing)
 .debug_str     0x0000000000002e0b       0x61 ../ucos2nios2_bsp//libucosii_bsp.a(alt_dev.o)
                                        0x3f3 (size before relaxing)
 .debug_str     0x0000000000002e6c       0x14 ../ucos2nios2_bsp//libucosii_bsp.a(alt_errno.o)
                                        0x16e (size before relaxing)
 .debug_str     0x0000000000002e80       0x14 ../ucos2nios2_bsp//libucosii_bsp.a(alt_fstat.o)
                                        0x366 (size before relaxing)
 .debug_str     0x0000000000002e94       0x15 ../ucos2nios2_bsp//libucosii_bsp.a(alt_isatty.o)
                                        0x36e (size before relaxing)
 .debug_str     0x0000000000002ea9       0xe9 ../ucos2nios2_bsp//libucosii_bsp.a(alt_load.o)
                                        0x23b (size before relaxing)
 .debug_str     0x0000000000002f92       0x14 ../ucos2nios2_bsp//libucosii_bsp.a(alt_lseek.o)
                                        0x28b (size before relaxing)
 .debug_str     0x0000000000002fa6       0x5d ../ucos2nios2_bsp//libucosii_bsp.a(alt_main.o)
                                        0x2aa (size before relaxing)
 .debug_str     0x0000000000003003       0x13 ../ucos2nios2_bsp//libucosii_bsp.a(alt_read.o)
                                        0x371 (size before relaxing)
 .debug_str     0x0000000000003016       0x28 ../ucos2nios2_bsp//libucosii_bsp.a(alt_release_fd.o)
                                        0x26f (size before relaxing)
 .debug_str     0x000000000000303e       0x98 ../ucos2nios2_bsp//libucosii_bsp.a(alt_sbrk.o)
                                        0x226 (size before relaxing)
 .debug_str     0x00000000000030d6       0x14 ../ucos2nios2_bsp//libucosii_bsp.a(alt_write.o)
                                        0x372 (size before relaxing)
 .debug_str     0x00000000000030ea      0x23d ../ucos2nios2_bsp//libucosii_bsp.a(alt_env_lock.o)
                                        0x812 (size before relaxing)
 .debug_str     0x0000000000003327       0x36 ../ucos2nios2_bsp//libucosii_bsp.a(alt_malloc_lock.o)
                                        0x874 (size before relaxing)
 .debug_str     0x000000000000335d      0x4e8 ../ucos2nios2_bsp//libucosii_bsp.a(os_core.o)
                                        0x9a0 (size before relaxing)
 .debug_str     0x0000000000003845      0x2e5 ../ucos2nios2_bsp//libucosii_bsp.a(os_dbg.o)
                                        0x90f (size before relaxing)
 .debug_str     0x0000000000003b2a      0x136 ../ucos2nios2_bsp//libucosii_bsp.a(os_flag.o)
                                        0x63c (size before relaxing)
 .debug_str     0x0000000000003c60       0xbd ../ucos2nios2_bsp//libucosii_bsp.a(os_mbox.o)
                                        0x55d (size before relaxing)
 .debug_str     0x0000000000003d1d       0xcf ../ucos2nios2_bsp//libucosii_bsp.a(os_mem.o)
                                        0x345 (size before relaxing)
 .debug_str     0x0000000000003dec       0xa2 ../ucos2nios2_bsp//libucosii_bsp.a(os_q.o)
                                        0x5bf (size before relaxing)
 .debug_str     0x0000000000003e8e       0x77 ../ucos2nios2_bsp//libucosii_bsp.a(os_sem.o)
                                        0x548 (size before relaxing)
 .debug_str     0x0000000000003f05      0x118 ../ucos2nios2_bsp//libucosii_bsp.a(os_task.o)
                                        0x64b (size before relaxing)
 .debug_str     0x000000000000401d       0x6d ../ucos2nios2_bsp//libucosii_bsp.a(os_time.o)
                                        0x4eb (size before relaxing)
 .debug_str     0x000000000000408a      0x4de ../ucos2nios2_bsp//libucosii_bsp.a(alt_sys_init.o)
                                        0x8b7 (size before relaxing)
 .debug_str     0x0000000000004568      0xaaf ../ucos2nios2_bsp//libucosii_bsp.a(Altera_UP_SD_Card_Avalon_Interface.o)
                                        0xdf8 (size before relaxing)
 .debug_str     0x0000000000005017       0xac ../ucos2nios2_bsp//libucosii_bsp.a(altera_avalon_jtag_uart_fd.o)
                                        0x4de (size before relaxing)
 .debug_str     0x00000000000050c3       0xf6 ../ucos2nios2_bsp//libucosii_bsp.a(altera_avalon_jtag_uart_init.o)
                                        0x4a5 (size before relaxing)
 .debug_str     0x00000000000051b9       0x4a ../ucos2nios2_bsp//libucosii_bsp.a(altera_avalon_jtag_uart_ioctl.o)
                                        0x3cd (size before relaxing)
 .debug_str     0x0000000000005203       0x63 ../ucos2nios2_bsp//libucosii_bsp.a(altera_avalon_jtag_uart_read.o)
                                        0x440 (size before relaxing)
 .debug_str     0x0000000000005266       0x4a ../ucos2nios2_bsp//libucosii_bsp.a(altera_avalon_jtag_uart_write.o)
                                        0x441 (size before relaxing)
 .debug_str     0x00000000000052b0       0x66 ../ucos2nios2_bsp//libucosii_bsp.a(altera_avalon_timer_sc.o)
                                        0x295 (size before relaxing)
 .debug_str     0x0000000000005316      0x247 ../ucos2nios2_bsp//libucosii_bsp.a(altera_up_avalon_audio.o)
                                        0x4b7 (size before relaxing)
 .debug_str     0x000000000000555d      0x1ea ../ucos2nios2_bsp//libucosii_bsp.a(altera_up_avalon_character_lcd.o)
                                        0x448 (size before relaxing)
 .debug_str     0x0000000000005747      0x16d ../ucos2nios2_bsp//libucosii_bsp.a(altera_up_avalon_irda.o)
                                        0x3d1 (size before relaxing)
 .debug_str     0x00000000000058b4      0x1c5 ../ucos2nios2_bsp//libucosii_bsp.a(altera_up_avalon_ps2.o)
                                        0x4a4 (size before relaxing)
 .debug_str     0x0000000000005a79      0x154 ../ucos2nios2_bsp//libucosii_bsp.a(altera_up_avalon_rs232.o)
                                        0x3de (size before relaxing)
 .debug_str     0x0000000000005bcd      0x174 ../ucos2nios2_bsp//libucosii_bsp.a(altera_up_ps2_keyboard.o)
                                        0x47a (size before relaxing)
 .debug_str     0x0000000000005d41       0x59 ../ucos2nios2_bsp//libucosii_bsp.a(alt_alarm_start.o)
                                        0x2c8 (size before relaxing)
 .debug_str     0x0000000000005d9a       0x34 ../ucos2nios2_bsp//libucosii_bsp.a(alt_dcache_flush_all.o)
                                        0x17e (size before relaxing)
 .debug_str     0x0000000000005dce       0x34 ../ucos2nios2_bsp//libucosii_bsp.a(alt_dev_llist_insert.o)
                                        0x1f5 (size before relaxing)
 .debug_str     0x0000000000005e02       0x48 ../ucos2nios2_bsp//libucosii_bsp.a(alt_do_ctors.o)
                                         0xf9 (size before relaxing)
 .debug_str     0x0000000000005e4a       0x4c ../ucos2nios2_bsp//libucosii_bsp.a(alt_do_dtors.o)
                                         0xf8 (size before relaxing)
 .debug_str     0x0000000000005e96       0x24 ../ucos2nios2_bsp//libucosii_bsp.a(alt_find_dev.o)
                                        0x266 (size before relaxing)
 .debug_str     0x0000000000005eba       0x34 ../ucos2nios2_bsp//libucosii_bsp.a(alt_icache_flush_all.o)
                                        0x17e (size before relaxing)
 .debug_str     0x0000000000005eee       0x56 ../ucos2nios2_bsp//libucosii_bsp.a(alt_io_redirect.o)
                                        0x390 (size before relaxing)
 .debug_str     0x0000000000005f44       0x70 ../ucos2nios2_bsp//libucosii_bsp.a(alt_irq_register.o)
                                        0x259 (size before relaxing)
 .debug_str     0x0000000000005fb4       0x17 ../ucos2nios2_bsp//libucosii_bsp.a(alt_irq_vars.o)
                                        0x163 (size before relaxing)
 .debug_str     0x0000000000005fcb       0x29 ../ucos2nios2_bsp//libucosii_bsp.a(alt_open.o)
                                        0x2bd (size before relaxing)
 .debug_str     0x0000000000005ff4       0x4a ../ucos2nios2_bsp//libucosii_bsp.a(alt_tick.o)
                                        0x2a9 (size before relaxing)
 .debug_str     0x000000000000603e       0x3b ../ucos2nios2_bsp//libucosii_bsp.a(altera_nios2_gen2_irq.o)
                                        0x1ae (size before relaxing)
 .debug_str     0x0000000000006079       0xd5 ../ucos2nios2_bsp//libucosii_bsp.a(os_cpu_c.o)
                                        0x887 (size before relaxing)
 .debug_str     0x000000000000614e       0x26 ../ucos2nios2_bsp//libucosii_bsp.a(alt_find_file.o)
                                        0x274 (size before relaxing)
 .debug_str     0x0000000000006174       0x30 ../ucos2nios2_bsp//libucosii_bsp.a(alt_get_fd.o)
                                        0x312 (size before relaxing)
 .debug_str     0x00000000000061a4       0x2c ../ucos2nios2_bsp//libucosii_bsp.a(alt_icache_flush.o)
                                        0x184 (size before relaxing)
 .debug_str     0x00000000000061d0       0x3a ../ucos2nios2_bsp//libucosii_bsp.a(alt_irq_handler.o)
                                        0x209 (size before relaxing)
 .debug_str     0x000000000000620a      0x48b ../ucos2nios2_bsp//libucosii_bsp.a(alt_instruction_exception_entry.o)
                                        0x5c9 (size before relaxing)
 .debug_str     0x0000000000006695       0x81 /opt/intelFPGA/18.1/nios2eds/bin/gnu/H-x86_64-pc-linux-gnu/bin/../lib/gcc/nios2-elf/5.3.0/../../../../../H-x86_64-pc-linux-gnu/nios2-elf/lib/mhw-mulx/libc.a(lib_a-atexit.o)
                                        0x21e (size before relaxing)
 .debug_str     0x0000000000006716       0x4c /opt/intelFPGA/18.1/nios2eds/bin/gnu/H-x86_64-pc-linux-gnu/bin/../lib/gcc/nios2-elf/5.3.0/../../../../../H-x86_64-pc-linux-gnu/nios2-elf/lib/mhw-mulx/libc.a(lib_a-exit.o)
                                        0x5bb (size before relaxing)
 .debug_str     0x0000000000006762       0x44 /opt/intelFPGA/18.1/nios2eds/bin/gnu/H-x86_64-pc-linux-gnu/bin/../lib/gcc/nios2-elf/5.3.0/../../../../../H-x86_64-pc-linux-gnu/nios2-elf/lib/mhw-mulx/libc.a(lib_a-memcmp.o)
                                        0x1e1 (size before relaxing)
 .debug_str     0x00000000000067a6       0x3f /opt/intelFPGA/18.1/nios2eds/bin/gnu/H-x86_64-pc-linux-gnu/bin/../lib/gcc/nios2-elf/5.3.0/../../../../../H-x86_64-pc-linux-gnu/nios2-elf/lib/mhw-mulx/libc.a(lib_a-__atexit.o)
                                        0x5f3 (size before relaxing)
 .debug_str     0x00000000000067e5       0x60 /opt/intelFPGA/18.1/nios2eds/bin/gnu/H-x86_64-pc-linux-gnu/bin/../lib/gcc/nios2-elf/5.3.0/../../../../../H-x86_64-pc-linux-gnu/nios2-elf/lib/mhw-mulx/libc.a(lib_a-__call_atexit.o)
                                        0x5df (size before relaxing)
 .debug_str     0x0000000000006845       0x2a ../ucos2nios2_bsp//libucosii_bsp.a(alt_exit.o)
                                        0x1dd (size before relaxing)

.debug_loc      0x0000000000000000    0x1c9a1
 *(.debug_loc)
 .debug_loc     0x0000000000000000       0x58 /opt/intelFPGA/18.1/nios2eds/bin/gnu/H-x86_64-pc-linux-gnu/bin/../lib/gcc/nios2-elf/5.3.0/../../../../../H-x86_64-pc-linux-gnu/nios2-elf/lib/mhw-mulx/libc.a(lib_a-malloc.o)
 .debug_loc     0x0000000000000058      0xb1b /opt/intelFPGA/18.1/nios2eds/bin/gnu/H-x86_64-pc-linux-gnu/bin/../lib/gcc/nios2-elf/5.3.0/../../../../../H-x86_64-pc-linux-gnu/nios2-elf/lib/mhw-mulx/libc.a(lib_a-mallocr.o)
 .debug_loc     0x0000000000000b73       0xd3 /opt/intelFPGA/18.1/nios2eds/bin/gnu/H-x86_64-pc-linux-gnu/bin/../lib/gcc/nios2-elf/5.3.0/../../../../../H-x86_64-pc-linux-gnu/nios2-elf/lib/mhw-mulx/libc.a(lib_a-printf.o)
 .debug_loc     0x0000000000000c46      0x117 /opt/intelFPGA/18.1/nios2eds/bin/gnu/H-x86_64-pc-linux-gnu/bin/../lib/gcc/nios2-elf/5.3.0/../../../../../H-x86_64-pc-linux-gnu/nios2-elf/lib/mhw-mulx/libc.a(lib_a-puts.o)
 .debug_loc     0x0000000000000d5d       0x58 /opt/intelFPGA/18.1/nios2eds/bin/gnu/H-x86_64-pc-linux-gnu/bin/../lib/gcc/nios2-elf/5.3.0/../../../../../H-x86_64-pc-linux-gnu/nios2-elf/lib/mhw-mulx/libc.a(lib_a-sbrkr.o)
 .debug_loc     0x0000000000000db5      0x3a2 /opt/intelFPGA/18.1/nios2eds/bin/gnu/H-x86_64-pc-linux-gnu/bin/../lib/gcc/nios2-elf/5.3.0/../../../../../H-x86_64-pc-linux-gnu/nios2-elf/lib/mhw-mulx/libc.a(lib_a-snprintf.o)
 .debug_loc     0x0000000000001157       0x86 /opt/intelFPGA/18.1/nios2eds/bin/gnu/H-x86_64-pc-linux-gnu/bin/../lib/gcc/nios2-elf/5.3.0/../../../../../H-x86_64-pc-linux-gnu/nios2-elf/lib/mhw-mulx/libc.a(lib_a-strcat.o)
 .debug_loc     0x00000000000011dd       0xe8 /opt/intelFPGA/18.1/nios2eds/bin/gnu/H-x86_64-pc-linux-gnu/bin/../lib/gcc/nios2-elf/5.3.0/../../../../../H-x86_64-pc-linux-gnu/nios2-elf/lib/mhw-mulx/libc.a(lib_a-strcpy.o)
 .debug_loc     0x00000000000012c5       0x47 /opt/intelFPGA/18.1/nios2eds/bin/gnu/H-x86_64-pc-linux-gnu/bin/../lib/gcc/nios2-elf/5.3.0/../../../../../H-x86_64-pc-linux-gnu/nios2-elf/lib/mhw-mulx/libc.a(lib_a-strlen.o)
 .debug_loc     0x000000000000130c     0x30a2 /opt/intelFPGA/18.1/nios2eds/bin/gnu/H-x86_64-pc-linux-gnu/bin/../lib/gcc/nios2-elf/5.3.0/../../../../../H-x86_64-pc-linux-gnu/nios2-elf/lib/mhw-mulx/libc.a(lib_a-svfprintf.o)
 .debug_loc     0x00000000000043ae     0x30cf /opt/intelFPGA/18.1/nios2eds/bin/gnu/H-x86_64-pc-linux-gnu/bin/../lib/gcc/nios2-elf/5.3.0/../../../../../H-x86_64-pc-linux-gnu/nios2-elf/lib/mhw-mulx/libc.a(lib_a-vfprintf.o)
 .debug_loc     0x000000000000747d       0xa2 /opt/intelFPGA/18.1/nios2eds/bin/gnu/H-x86_64-pc-linux-gnu/bin/../lib/gcc/nios2-elf/5.3.0/../../../../../H-x86_64-pc-linux-gnu/nios2-elf/lib/mhw-mulx/libc.a(lib_a-wsetup.o)
 .debug_loc     0x000000000000751f     0x2855 /opt/intelFPGA/18.1/nios2eds/bin/gnu/H-x86_64-pc-linux-gnu/bin/../lib/gcc/nios2-elf/5.3.0/../../../../../H-x86_64-pc-linux-gnu/nios2-elf/lib/mhw-mulx/libc.a(lib_a-dtoa.o)
 .debug_loc     0x0000000000009d74      0x36f /opt/intelFPGA/18.1/nios2eds/bin/gnu/H-x86_64-pc-linux-gnu/bin/../lib/gcc/nios2-elf/5.3.0/../../../../../H-x86_64-pc-linux-gnu/nios2-elf/lib/mhw-mulx/libc.a(lib_a-fflush.o)
 .debug_loc     0x000000000000a0e3      0x2ee /opt/intelFPGA/18.1/nios2eds/bin/gnu/H-x86_64-pc-linux-gnu/bin/../lib/gcc/nios2-elf/5.3.0/../../../../../H-x86_64-pc-linux-gnu/nios2-elf/lib/mhw-mulx/libc.a(lib_a-findfp.o)
 .debug_loc     0x000000000000a3d1      0x4e7 /opt/intelFPGA/18.1/nios2eds/bin/gnu/H-x86_64-pc-linux-gnu/bin/../lib/gcc/nios2-elf/5.3.0/../../../../../H-x86_64-pc-linux-gnu/nios2-elf/lib/mhw-mulx/libc.a(lib_a-freer.o)
 .debug_loc     0x000000000000a8b8      0x5d7 /opt/intelFPGA/18.1/nios2eds/bin/gnu/H-x86_64-pc-linux-gnu/bin/../lib/gcc/nios2-elf/5.3.0/../../../../../H-x86_64-pc-linux-gnu/nios2-elf/lib/mhw-mulx/libc.a(lib_a-fvwrite.o)
 .debug_loc     0x000000000000ae8f      0x25b /opt/intelFPGA/18.1/nios2eds/bin/gnu/H-x86_64-pc-linux-gnu/bin/../lib/gcc/nios2-elf/5.3.0/../../../../../H-x86_64-pc-linux-gnu/nios2-elf/lib/mhw-mulx/libc.a(lib_a-fwalk.o)
 .debug_loc     0x000000000000b0ea      0x131 /opt/intelFPGA/18.1/nios2eds/bin/gnu/H-x86_64-pc-linux-gnu/bin/../lib/gcc/nios2-elf/5.3.0/../../../../../H-x86_64-pc-linux-gnu/nios2-elf/lib/mhw-mulx/libc.a(lib_a-locale.o)
 .debug_loc     0x000000000000b21b      0x122 /opt/intelFPGA/18.1/nios2eds/bin/gnu/H-x86_64-pc-linux-gnu/bin/../lib/gcc/nios2-elf/5.3.0/../../../../../H-x86_64-pc-linux-gnu/nios2-elf/lib/mhw-mulx/libc.a(lib_a-makebuf.o)
 .debug_loc     0x000000000000b33d      0x1a1 /opt/intelFPGA/18.1/nios2eds/bin/gnu/H-x86_64-pc-linux-gnu/bin/../lib/gcc/nios2-elf/5.3.0/../../../../../H-x86_64-pc-linux-gnu/nios2-elf/lib/mhw-mulx/libc.a(lib_a-memchr.o)
 .debug_loc     0x000000000000b4de      0x266 /opt/intelFPGA/18.1/nios2eds/bin/gnu/H-x86_64-pc-linux-gnu/bin/../lib/gcc/nios2-elf/5.3.0/../../../../../H-x86_64-pc-linux-gnu/nios2-elf/lib/mhw-mulx/libc.a(lib_a-memcpy.o)
 .debug_loc     0x000000000000b744      0x308 /opt/intelFPGA/18.1/nios2eds/bin/gnu/H-x86_64-pc-linux-gnu/bin/../lib/gcc/nios2-elf/5.3.0/../../../../../H-x86_64-pc-linux-gnu/nios2-elf/lib/mhw-mulx/libc.a(lib_a-memmove.o)
 .debug_loc     0x000000000000ba4c      0x1a6 /opt/intelFPGA/18.1/nios2eds/bin/gnu/H-x86_64-pc-linux-gnu/bin/../lib/gcc/nios2-elf/5.3.0/../../../../../H-x86_64-pc-linux-gnu/nios2-elf/lib/mhw-mulx/libc.a(lib_a-memset.o)
 .debug_loc     0x000000000000bbf2     0x1bee /opt/intelFPGA/18.1/nios2eds/bin/gnu/H-x86_64-pc-linux-gnu/bin/../lib/gcc/nios2-elf/5.3.0/../../../../../H-x86_64-pc-linux-gnu/nios2-elf/lib/mhw-mulx/libc.a(lib_a-mprec.o)
 .debug_loc     0x000000000000d7e0      0xde4 /opt/intelFPGA/18.1/nios2eds/bin/gnu/H-x86_64-pc-linux-gnu/bin/../lib/gcc/nios2-elf/5.3.0/../../../../../H-x86_64-pc-linux-gnu/nios2-elf/lib/mhw-mulx/libc.a(lib_a-reallocr.o)
 .debug_loc     0x000000000000e5c4       0x2f /opt/intelFPGA/18.1/nios2eds/bin/gnu/H-x86_64-pc-linux-gnu/bin/../lib/gcc/nios2-elf/5.3.0/../../../../../H-x86_64-pc-linux-gnu/nios2-elf/lib/mhw-mulx/libc.a(lib_a-s_fpclassify.o)
 .debug_loc     0x000000000000e5f3      0x33a /opt/intelFPGA/18.1/nios2eds/bin/gnu/H-x86_64-pc-linux-gnu/bin/../lib/gcc/nios2-elf/5.3.0/../../../../../H-x86_64-pc-linux-gnu/nios2-elf/lib/mhw-mulx/libc.a(lib_a-stdio.o)
 .debug_loc     0x000000000000e92d       0xc6 /opt/intelFPGA/18.1/nios2eds/bin/gnu/H-x86_64-pc-linux-gnu/bin/../lib/gcc/nios2-elf/5.3.0/../../../../../H-x86_64-pc-linux-gnu/nios2-elf/lib/mhw-mulx/libc.a(lib_a-strcmp.o)
 .debug_loc     0x000000000000e9f3     0x1b2f /opt/intelFPGA/18.1/nios2eds/bin/gnu/H-x86_64-pc-linux-gnu/bin/../lib/gcc/nios2-elf/5.3.0/../../../../../H-x86_64-pc-linux-gnu/nios2-elf/lib/mhw-mulx/libc.a(lib_a-svfiprintf.o)
 .debug_loc     0x0000000000010522     0x2739 /opt/intelFPGA/18.1/nios2eds/bin/gnu/H-x86_64-pc-linux-gnu/bin/../lib/gcc/nios2-elf/5.3.0/../../../../../H-x86_64-pc-linux-gnu/nios2-elf/lib/mhw-mulx/libc.a(lib_a-vfiprintf.o)
 .debug_loc     0x0000000000012c5b       0xb0 /opt/intelFPGA/18.1/nios2eds/bin/gnu/H-x86_64-pc-linux-gnu/bin/../lib/gcc/nios2-elf/5.3.0/../../../../../H-x86_64-pc-linux-gnu/nios2-elf/lib/mhw-mulx/libc.a(lib_a-writer.o)
 .debug_loc     0x0000000000012d0b       0x58 /opt/intelFPGA/18.1/nios2eds/bin/gnu/H-x86_64-pc-linux-gnu/bin/../lib/gcc/nios2-elf/5.3.0/../../../../../H-x86_64-pc-linux-gnu/nios2-elf/lib/mhw-mulx/libc.a(closer.o)
 .debug_loc     0x0000000000012d63      0x1db /opt/intelFPGA/18.1/nios2eds/bin/gnu/H-x86_64-pc-linux-gnu/bin/../lib/gcc/nios2-elf/5.3.0/../../../../../H-x86_64-pc-linux-gnu/nios2-elf/lib/mhw-mulx/libc.a(lib_a-callocr.o)
 .debug_loc     0x0000000000012f3e      0x199 /opt/intelFPGA/18.1/nios2eds/bin/gnu/H-x86_64-pc-linux-gnu/bin/../lib/gcc/nios2-elf/5.3.0/../../../../../H-x86_64-pc-linux-gnu/nios2-elf/lib/mhw-mulx/libc.a(lib_a-fclose.o)
 .debug_loc     0x00000000000130d7      0x2a1 /opt/intelFPGA/18.1/nios2eds/bin/gnu/H-x86_64-pc-linux-gnu/bin/../lib/gcc/nios2-elf/5.3.0/../../../../../H-x86_64-pc-linux-gnu/nios2-elf/lib/mhw-mulx/libc.a(lib_a-fputwc.o)
 .debug_loc     0x0000000000013378       0x84 /opt/intelFPGA/18.1/nios2eds/bin/gnu/H-x86_64-pc-linux-gnu/bin/../lib/gcc/nios2-elf/5.3.0/../../../../../H-x86_64-pc-linux-gnu/nios2-elf/lib/mhw-mulx/libc.a(lib_a-fstatr.o)
 .debug_loc     0x00000000000133fc       0x58 /opt/intelFPGA/18.1/nios2eds/bin/gnu/H-x86_64-pc-linux-gnu/bin/../lib/gcc/nios2-elf/5.3.0/../../../../../H-x86_64-pc-linux-gnu/nios2-elf/lib/mhw-mulx/libc.a(lib_a-isattyr.o)
 .debug_loc     0x0000000000013454       0xb0 /opt/intelFPGA/18.1/nios2eds/bin/gnu/H-x86_64-pc-linux-gnu/bin/../lib/gcc/nios2-elf/5.3.0/../../../../../H-x86_64-pc-linux-gnu/nios2-elf/lib/mhw-mulx/libc.a(lib_a-lseekr.o)
 .debug_loc     0x0000000000013504       0xb0 /opt/intelFPGA/18.1/nios2eds/bin/gnu/H-x86_64-pc-linux-gnu/bin/../lib/gcc/nios2-elf/5.3.0/../../../../../H-x86_64-pc-linux-gnu/nios2-elf/lib/mhw-mulx/libc.a(lib_a-readr.o)
 .debug_loc     0x00000000000135b4      0x1b2 /opt/intelFPGA/18.1/nios2eds/bin/gnu/H-x86_64-pc-linux-gnu/bin/../lib/gcc/nios2-elf/5.3.0/../../../../../H-x86_64-pc-linux-gnu/nios2-elf/lib/mhw-mulx/libc.a(lib_a-wbuf.o)
 .debug_loc     0x0000000000013766      0x24e /opt/intelFPGA/18.1/nios2eds/bin/gnu/H-x86_64-pc-linux-gnu/bin/../lib/gcc/nios2-elf/5.3.0/../../../../../H-x86_64-pc-linux-gnu/nios2-elf/lib/mhw-mulx/libc.a(lib_a-wcrtomb.o)
 .debug_loc     0x00000000000139b4       0x8f /opt/intelFPGA/18.1/nios2eds/bin/gnu/H-x86_64-pc-linux-gnu/bin/../lib/gcc/nios2-elf/5.3.0/../../../../../H-x86_64-pc-linux-gnu/nios2-elf/lib/mhw-mulx/libc.a(lib_a-wctomb_r.o)
 .debug_loc     0x0000000000013a43     0x10ca /opt/intelFPGA/18.1/nios2eds/bin/gnu/H-x86_64-pc-linux-gnu/bin/../lib/gcc/nios2-elf/5.3.0/mhw-mulx/libgcc.a(_udivdi3.o)
 .debug_loc     0x0000000000014b0d     0x10ad /opt/intelFPGA/18.1/nios2eds/bin/gnu/H-x86_64-pc-linux-gnu/bin/../lib/gcc/nios2-elf/5.3.0/mhw-mulx/libgcc.a(_umoddi3.o)
 .debug_loc     0x0000000000015bba      0x4ce /opt/intelFPGA/18.1/nios2eds/bin/gnu/H-x86_64-pc-linux-gnu/bin/../lib/gcc/nios2-elf/5.3.0/mhw-mulx/libgcc.a(lib2-divmod.o)
 .debug_loc     0x0000000000016088     0x16f9 /opt/intelFPGA/18.1/nios2eds/bin/gnu/H-x86_64-pc-linux-gnu/bin/../lib/gcc/nios2-elf/5.3.0/mhw-mulx/libgcc.a(adddf3.o)
 .debug_loc     0x0000000000017781     0x1fc6 /opt/intelFPGA/18.1/nios2eds/bin/gnu/H-x86_64-pc-linux-gnu/bin/../lib/gcc/nios2-elf/5.3.0/mhw-mulx/libgcc.a(divdf3.o)
 .debug_loc     0x0000000000019747       0x68 /opt/intelFPGA/18.1/nios2eds/bin/gnu/H-x86_64-pc-linux-gnu/bin/../lib/gcc/nios2-elf/5.3.0/mhw-mulx/libgcc.a(eqdf2.o)
 .debug_loc     0x00000000000197af       0xf9 /opt/intelFPGA/18.1/nios2eds/bin/gnu/H-x86_64-pc-linux-gnu/bin/../lib/gcc/nios2-elf/5.3.0/mhw-mulx/libgcc.a(gedf2.o)
 .debug_loc     0x00000000000198a8      0x163 /opt/intelFPGA/18.1/nios2eds/bin/gnu/H-x86_64-pc-linux-gnu/bin/../lib/gcc/nios2-elf/5.3.0/mhw-mulx/libgcc.a(ledf2.o)
 .debug_loc     0x0000000000019a0b     0x100d /opt/intelFPGA/18.1/nios2eds/bin/gnu/H-x86_64-pc-linux-gnu/bin/../lib/gcc/nios2-elf/5.3.0/mhw-mulx/libgcc.a(muldf3.o)
 .debug_loc     0x000000000001aa18     0x1627 /opt/intelFPGA/18.1/nios2eds/bin/gnu/H-x86_64-pc-linux-gnu/bin/../lib/gcc/nios2-elf/5.3.0/mhw-mulx/libgcc.a(subdf3.o)
 .debug_loc     0x000000000001c03f      0x121 /opt/intelFPGA/18.1/nios2eds/bin/gnu/H-x86_64-pc-linux-gnu/bin/../lib/gcc/nios2-elf/5.3.0/mhw-mulx/libgcc.a(fixdfsi.o)
 .debug_loc     0x000000000001c160      0x175 /opt/intelFPGA/18.1/nios2eds/bin/gnu/H-x86_64-pc-linux-gnu/bin/../lib/gcc/nios2-elf/5.3.0/mhw-mulx/libgcc.a(floatsidf.o)
 .debug_loc     0x000000000001c2d5      0x19e /opt/intelFPGA/18.1/nios2eds/bin/gnu/H-x86_64-pc-linux-gnu/bin/../lib/gcc/nios2-elf/5.3.0/mhw-mulx/libgcc.a(floatunsidf.o)
 .debug_loc     0x000000000001c473       0x6b /opt/intelFPGA/18.1/nios2eds/bin/gnu/H-x86_64-pc-linux-gnu/bin/../lib/gcc/nios2-elf/5.3.0/mhw-mulx/libgcc.a(_clzsi2.o)
 .debug_loc     0x000000000001c4de       0x2c /opt/intelFPGA/18.1/nios2eds/bin/gnu/H-x86_64-pc-linux-gnu/bin/../lib/gcc/nios2-elf/5.3.0/../../../../../H-x86_64-pc-linux-gnu/nios2-elf/lib/mhw-mulx/libc.a(lib_a-atexit.o)
 .debug_loc     0x000000000001c50a       0x1e /opt/intelFPGA/18.1/nios2eds/bin/gnu/H-x86_64-pc-linux-gnu/bin/../lib/gcc/nios2-elf/5.3.0/../../../../../H-x86_64-pc-linux-gnu/nios2-elf/lib/mhw-mulx/libc.a(lib_a-exit.o)
 .debug_loc     0x000000000001c528      0x126 /opt/intelFPGA/18.1/nios2eds/bin/gnu/H-x86_64-pc-linux-gnu/bin/../lib/gcc/nios2-elf/5.3.0/../../../../../H-x86_64-pc-linux-gnu/nios2-elf/lib/mhw-mulx/libc.a(lib_a-memcmp.o)
 .debug_loc     0x000000000001c64e      0x185 /opt/intelFPGA/18.1/nios2eds/bin/gnu/H-x86_64-pc-linux-gnu/bin/../lib/gcc/nios2-elf/5.3.0/../../../../../H-x86_64-pc-linux-gnu/nios2-elf/lib/mhw-mulx/libc.a(lib_a-__atexit.o)
 .debug_loc     0x000000000001c7d3      0x1ce /opt/intelFPGA/18.1/nios2eds/bin/gnu/H-x86_64-pc-linux-gnu/bin/../lib/gcc/nios2-elf/5.3.0/../../../../../H-x86_64-pc-linux-gnu/nios2-elf/lib/mhw-mulx/libc.a(lib_a-__call_atexit.o)

.debug_macinfo
 *(.debug_macinfo)

.debug_weaknames
 *(.debug_weaknames)

.debug_funcnames
 *(.debug_funcnames)

.debug_typenames
 *(.debug_typenames)

.debug_varnames
 *(.debug_varnames)

.debug_alt_sim_info
                0x0000000000000000       0x20
 *(.debug_alt_sim_info)
 .debug_alt_sim_info
                0x0000000000000000       0x20 ../ucos2nios2_bsp//obj/HAL/src/crt0.o
                0x0000000004000000                __alt_data_end = 0x4000000
                0x0000000004000000                PROVIDE (__alt_stack_pointer, __alt_data_end)
                [!provide]                        PROVIDE (__alt_stack_limit, __alt_stack_base)
                0x0000000000098598                PROVIDE (__alt_heap_start, end)
                0x0000000004000000                PROVIDE (__alt_heap_limit, 0x4000000)
OUTPUT(pong.elf elf32-littlenios2)

.debug_ranges   0x0000000000000000     0x1b08
 .debug_ranges  0x0000000000000000       0x20 ../ucos2nios2_bsp//obj/HAL/src/crt0.o
 .debug_ranges  0x0000000000000020       0x18 /opt/intelFPGA/18.1/nios2eds/bin/gnu/H-x86_64-pc-linux-gnu/bin/../lib/gcc/nios2-elf/5.3.0/../../../../../H-x86_64-pc-linux-gnu/nios2-elf/lib/mhw-mulx/libc.a(lib_a-malloc.o)
 .debug_ranges  0x0000000000000038       0x48 /opt/intelFPGA/18.1/nios2eds/bin/gnu/H-x86_64-pc-linux-gnu/bin/../lib/gcc/nios2-elf/5.3.0/../../../../../H-x86_64-pc-linux-gnu/nios2-elf/lib/mhw-mulx/libc.a(lib_a-mallocr.o)
 .debug_ranges  0x0000000000000080       0x18 /opt/intelFPGA/18.1/nios2eds/bin/gnu/H-x86_64-pc-linux-gnu/bin/../lib/gcc/nios2-elf/5.3.0/../../../../../H-x86_64-pc-linux-gnu/nios2-elf/lib/mhw-mulx/libc.a(lib_a-printf.o)
 .debug_ranges  0x0000000000000098       0x30 /opt/intelFPGA/18.1/nios2eds/bin/gnu/H-x86_64-pc-linux-gnu/bin/../lib/gcc/nios2-elf/5.3.0/../../../../../H-x86_64-pc-linux-gnu/nios2-elf/lib/mhw-mulx/libc.a(lib_a-puts.o)
 .debug_ranges  0x00000000000000c8       0x10 /opt/intelFPGA/18.1/nios2eds/bin/gnu/H-x86_64-pc-linux-gnu/bin/../lib/gcc/nios2-elf/5.3.0/../../../../../H-x86_64-pc-linux-gnu/nios2-elf/lib/mhw-mulx/libc.a(lib_a-sbrkr.o)
 .debug_ranges  0x00000000000000d8       0x18 /opt/intelFPGA/18.1/nios2eds/bin/gnu/H-x86_64-pc-linux-gnu/bin/../lib/gcc/nios2-elf/5.3.0/../../../../../H-x86_64-pc-linux-gnu/nios2-elf/lib/mhw-mulx/libc.a(lib_a-snprintf.o)
 .debug_ranges  0x00000000000000f0       0x10 /opt/intelFPGA/18.1/nios2eds/bin/gnu/H-x86_64-pc-linux-gnu/bin/../lib/gcc/nios2-elf/5.3.0/../../../../../H-x86_64-pc-linux-gnu/nios2-elf/lib/mhw-mulx/libc.a(lib_a-strcat.o)
 .debug_ranges  0x0000000000000100       0x10 /opt/intelFPGA/18.1/nios2eds/bin/gnu/H-x86_64-pc-linux-gnu/bin/../lib/gcc/nios2-elf/5.3.0/../../../../../H-x86_64-pc-linux-gnu/nios2-elf/lib/mhw-mulx/libc.a(lib_a-strcpy.o)
 .debug_ranges  0x0000000000000110       0x10 /opt/intelFPGA/18.1/nios2eds/bin/gnu/H-x86_64-pc-linux-gnu/bin/../lib/gcc/nios2-elf/5.3.0/../../../../../H-x86_64-pc-linux-gnu/nios2-elf/lib/mhw-mulx/libc.a(lib_a-strlen.o)
 .debug_ranges  0x0000000000000120      0x158 /opt/intelFPGA/18.1/nios2eds/bin/gnu/H-x86_64-pc-linux-gnu/bin/../lib/gcc/nios2-elf/5.3.0/../../../../../H-x86_64-pc-linux-gnu/nios2-elf/lib/mhw-mulx/libc.a(lib_a-svfprintf.o)
 .debug_ranges  0x0000000000000278      0x178 /opt/intelFPGA/18.1/nios2eds/bin/gnu/H-x86_64-pc-linux-gnu/bin/../lib/gcc/nios2-elf/5.3.0/../../../../../H-x86_64-pc-linux-gnu/nios2-elf/lib/mhw-mulx/libc.a(lib_a-vfprintf.o)
 .debug_ranges  0x00000000000003f0       0x40 /opt/intelFPGA/18.1/nios2eds/bin/gnu/H-x86_64-pc-linux-gnu/bin/../lib/gcc/nios2-elf/5.3.0/../../../../../H-x86_64-pc-linux-gnu/nios2-elf/lib/mhw-mulx/libc.a(lib_a-wsetup.o)
 .debug_ranges  0x0000000000000430       0x18 /opt/intelFPGA/18.1/nios2eds/bin/gnu/H-x86_64-pc-linux-gnu/bin/../lib/gcc/nios2-elf/5.3.0/../../../../../H-x86_64-pc-linux-gnu/nios2-elf/lib/mhw-mulx/libc.a(lib_a-dtoa.o)
 .debug_ranges  0x0000000000000448       0x58 /opt/intelFPGA/18.1/nios2eds/bin/gnu/H-x86_64-pc-linux-gnu/bin/../lib/gcc/nios2-elf/5.3.0/../../../../../H-x86_64-pc-linux-gnu/nios2-elf/lib/mhw-mulx/libc.a(lib_a-fflush.o)
 .debug_ranges  0x00000000000004a0       0xc8 /opt/intelFPGA/18.1/nios2eds/bin/gnu/H-x86_64-pc-linux-gnu/bin/../lib/gcc/nios2-elf/5.3.0/../../../../../H-x86_64-pc-linux-gnu/nios2-elf/lib/mhw-mulx/libc.a(lib_a-findfp.o)
 .debug_ranges  0x0000000000000568       0x18 /opt/intelFPGA/18.1/nios2eds/bin/gnu/H-x86_64-pc-linux-gnu/bin/../lib/gcc/nios2-elf/5.3.0/../../../../../H-x86_64-pc-linux-gnu/nios2-elf/lib/mhw-mulx/libc.a(lib_a-freer.o)
 .debug_ranges  0x0000000000000580       0x30 /opt/intelFPGA/18.1/nios2eds/bin/gnu/H-x86_64-pc-linux-gnu/bin/../lib/gcc/nios2-elf/5.3.0/../../../../../H-x86_64-pc-linux-gnu/nios2-elf/lib/mhw-mulx/libc.a(lib_a-fvwrite.o)
 .debug_ranges  0x00000000000005b0       0x18 /opt/intelFPGA/18.1/nios2eds/bin/gnu/H-x86_64-pc-linux-gnu/bin/../lib/gcc/nios2-elf/5.3.0/../../../../../H-x86_64-pc-linux-gnu/nios2-elf/lib/mhw-mulx/libc.a(lib_a-fwalk.o)
 .debug_ranges  0x00000000000005c8       0x60 /opt/intelFPGA/18.1/nios2eds/bin/gnu/H-x86_64-pc-linux-gnu/bin/../lib/gcc/nios2-elf/5.3.0/../../../../../H-x86_64-pc-linux-gnu/nios2-elf/lib/mhw-mulx/libc.a(lib_a-locale.o)
 .debug_ranges  0x0000000000000628       0x10 /opt/intelFPGA/18.1/nios2eds/bin/gnu/H-x86_64-pc-linux-gnu/bin/../lib/gcc/nios2-elf/5.3.0/../../../../../H-x86_64-pc-linux-gnu/nios2-elf/lib/mhw-mulx/libc.a(lib_a-makebuf.o)
 .debug_ranges  0x0000000000000638       0x10 /opt/intelFPGA/18.1/nios2eds/bin/gnu/H-x86_64-pc-linux-gnu/bin/../lib/gcc/nios2-elf/5.3.0/../../../../../H-x86_64-pc-linux-gnu/nios2-elf/lib/mhw-mulx/libc.a(lib_a-memchr.o)
 .debug_ranges  0x0000000000000648       0x10 /opt/intelFPGA/18.1/nios2eds/bin/gnu/H-x86_64-pc-linux-gnu/bin/../lib/gcc/nios2-elf/5.3.0/../../../../../H-x86_64-pc-linux-gnu/nios2-elf/lib/mhw-mulx/libc.a(lib_a-memcpy.o)
 .debug_ranges  0x0000000000000658       0x10 /opt/intelFPGA/18.1/nios2eds/bin/gnu/H-x86_64-pc-linux-gnu/bin/../lib/gcc/nios2-elf/5.3.0/../../../../../H-x86_64-pc-linux-gnu/nios2-elf/lib/mhw-mulx/libc.a(lib_a-memmove.o)
 .debug_ranges  0x0000000000000668       0x10 /opt/intelFPGA/18.1/nios2eds/bin/gnu/H-x86_64-pc-linux-gnu/bin/../lib/gcc/nios2-elf/5.3.0/../../../../../H-x86_64-pc-linux-gnu/nios2-elf/lib/mhw-mulx/libc.a(lib_a-memset.o)
 .debug_ranges  0x0000000000000678       0xe8 /opt/intelFPGA/18.1/nios2eds/bin/gnu/H-x86_64-pc-linux-gnu/bin/../lib/gcc/nios2-elf/5.3.0/../../../../../H-x86_64-pc-linux-gnu/nios2-elf/lib/mhw-mulx/libc.a(lib_a-mprec.o)
 .debug_ranges  0x0000000000000760      0x148 /opt/intelFPGA/18.1/nios2eds/bin/gnu/H-x86_64-pc-linux-gnu/bin/../lib/gcc/nios2-elf/5.3.0/../../../../../H-x86_64-pc-linux-gnu/nios2-elf/lib/mhw-mulx/libc.a(lib_a-reallocr.o)
 .debug_ranges  0x00000000000008a8       0x10 /opt/intelFPGA/18.1/nios2eds/bin/gnu/H-x86_64-pc-linux-gnu/bin/../lib/gcc/nios2-elf/5.3.0/../../../../../H-x86_64-pc-linux-gnu/nios2-elf/lib/mhw-mulx/libc.a(lib_a-s_fpclassify.o)
 .debug_ranges  0x00000000000008b8       0x30 /opt/intelFPGA/18.1/nios2eds/bin/gnu/H-x86_64-pc-linux-gnu/bin/../lib/gcc/nios2-elf/5.3.0/../../../../../H-x86_64-pc-linux-gnu/nios2-elf/lib/mhw-mulx/libc.a(lib_a-stdio.o)
 .debug_ranges  0x00000000000008e8       0x10 /opt/intelFPGA/18.1/nios2eds/bin/gnu/H-x86_64-pc-linux-gnu/bin/../lib/gcc/nios2-elf/5.3.0/../../../../../H-x86_64-pc-linux-gnu/nios2-elf/lib/mhw-mulx/libc.a(lib_a-strcmp.o)
 .debug_ranges  0x00000000000008f8       0x58 /opt/intelFPGA/18.1/nios2eds/bin/gnu/H-x86_64-pc-linux-gnu/bin/../lib/gcc/nios2-elf/5.3.0/../../../../../H-x86_64-pc-linux-gnu/nios2-elf/lib/mhw-mulx/libc.a(lib_a-svfiprintf.o)
 .debug_ranges  0x0000000000000950      0x1b8 /opt/intelFPGA/18.1/nios2eds/bin/gnu/H-x86_64-pc-linux-gnu/bin/../lib/gcc/nios2-elf/5.3.0/../../../../../H-x86_64-pc-linux-gnu/nios2-elf/lib/mhw-mulx/libc.a(lib_a-vfiprintf.o)
 .debug_ranges  0x0000000000000b08       0x10 /opt/intelFPGA/18.1/nios2eds/bin/gnu/H-x86_64-pc-linux-gnu/bin/../lib/gcc/nios2-elf/5.3.0/../../../../../H-x86_64-pc-linux-gnu/nios2-elf/lib/mhw-mulx/libc.a(lib_a-writer.o)
 .debug_ranges  0x0000000000000b18       0x10 /opt/intelFPGA/18.1/nios2eds/bin/gnu/H-x86_64-pc-linux-gnu/bin/../lib/gcc/nios2-elf/5.3.0/../../../../../H-x86_64-pc-linux-gnu/nios2-elf/lib/mhw-mulx/libc.a(closer.o)
 .debug_ranges  0x0000000000000b28       0x48 /opt/intelFPGA/18.1/nios2eds/bin/gnu/H-x86_64-pc-linux-gnu/bin/../lib/gcc/nios2-elf/5.3.0/../../../../../H-x86_64-pc-linux-gnu/nios2-elf/lib/mhw-mulx/libc.a(lib_a-callocr.o)
 .debug_ranges  0x0000000000000b70       0x48 /opt/intelFPGA/18.1/nios2eds/bin/gnu/H-x86_64-pc-linux-gnu/bin/../lib/gcc/nios2-elf/5.3.0/../../../../../H-x86_64-pc-linux-gnu/nios2-elf/lib/mhw-mulx/libc.a(lib_a-fclose.o)
 .debug_ranges  0x0000000000000bb8       0x50 /opt/intelFPGA/18.1/nios2eds/bin/gnu/H-x86_64-pc-linux-gnu/bin/../lib/gcc/nios2-elf/5.3.0/../../../../../H-x86_64-pc-linux-gnu/nios2-elf/lib/mhw-mulx/libc.a(lib_a-fputwc.o)
 .debug_ranges  0x0000000000000c08       0x10 /opt/intelFPGA/18.1/nios2eds/bin/gnu/H-x86_64-pc-linux-gnu/bin/../lib/gcc/nios2-elf/5.3.0/../../../../../H-x86_64-pc-linux-gnu/nios2-elf/lib/mhw-mulx/libc.a(lib_a-fstatr.o)
 .debug_ranges  0x0000000000000c18       0x10 /opt/intelFPGA/18.1/nios2eds/bin/gnu/H-x86_64-pc-linux-gnu/bin/../lib/gcc/nios2-elf/5.3.0/../../../../../H-x86_64-pc-linux-gnu/nios2-elf/lib/mhw-mulx/libc.a(lib_a-isattyr.o)
 .debug_ranges  0x0000000000000c28       0x10 /opt/intelFPGA/18.1/nios2eds/bin/gnu/H-x86_64-pc-linux-gnu/bin/../lib/gcc/nios2-elf/5.3.0/../../../../../H-x86_64-pc-linux-gnu/nios2-elf/lib/mhw-mulx/libc.a(lib_a-lseekr.o)
 .debug_ranges  0x0000000000000c38       0x10 /opt/intelFPGA/18.1/nios2eds/bin/gnu/H-x86_64-pc-linux-gnu/bin/../lib/gcc/nios2-elf/5.3.0/../../../../../H-x86_64-pc-linux-gnu/nios2-elf/lib/mhw-mulx/libc.a(lib_a-readr.o)
 .debug_ranges  0x0000000000000c48       0x30 /opt/intelFPGA/18.1/nios2eds/bin/gnu/H-x86_64-pc-linux-gnu/bin/../lib/gcc/nios2-elf/5.3.0/../../../../../H-x86_64-pc-linux-gnu/nios2-elf/lib/mhw-mulx/libc.a(lib_a-wbuf.o)
 .debug_ranges  0x0000000000000c78       0x18 /opt/intelFPGA/18.1/nios2eds/bin/gnu/H-x86_64-pc-linux-gnu/bin/../lib/gcc/nios2-elf/5.3.0/../../../../../H-x86_64-pc-linux-gnu/nios2-elf/lib/mhw-mulx/libc.a(lib_a-wcrtomb.o)
 .debug_ranges  0x0000000000000c90       0x18 /opt/intelFPGA/18.1/nios2eds/bin/gnu/H-x86_64-pc-linux-gnu/bin/../lib/gcc/nios2-elf/5.3.0/../../../../../H-x86_64-pc-linux-gnu/nios2-elf/lib/mhw-mulx/libc.a(lib_a-wctomb_r.o)
 .debug_ranges  0x0000000000000ca8      0x158 /opt/intelFPGA/18.1/nios2eds/bin/gnu/H-x86_64-pc-linux-gnu/bin/../lib/gcc/nios2-elf/5.3.0/mhw-mulx/libgcc.a(_udivdi3.o)
 .debug_ranges  0x0000000000000e00      0x160 /opt/intelFPGA/18.1/nios2eds/bin/gnu/H-x86_64-pc-linux-gnu/bin/../lib/gcc/nios2-elf/5.3.0/mhw-mulx/libgcc.a(_umoddi3.o)
 .debug_ranges  0x0000000000000f60       0x60 /opt/intelFPGA/18.1/nios2eds/bin/gnu/H-x86_64-pc-linux-gnu/bin/../lib/gcc/nios2-elf/5.3.0/mhw-mulx/libgcc.a(lib2-divmod.o)
 .debug_ranges  0x0000000000000fc0      0x240 /opt/intelFPGA/18.1/nios2eds/bin/gnu/H-x86_64-pc-linux-gnu/bin/../lib/gcc/nios2-elf/5.3.0/mhw-mulx/libgcc.a(adddf3.o)
 .debug_ranges  0x0000000000001200      0x138 /opt/intelFPGA/18.1/nios2eds/bin/gnu/H-x86_64-pc-linux-gnu/bin/../lib/gcc/nios2-elf/5.3.0/mhw-mulx/libgcc.a(divdf3.o)
 .debug_ranges  0x0000000000001338       0x48 /opt/intelFPGA/18.1/nios2eds/bin/gnu/H-x86_64-pc-linux-gnu/bin/../lib/gcc/nios2-elf/5.3.0/mhw-mulx/libgcc.a(eqdf2.o)
 .debug_ranges  0x0000000000001380       0x88 /opt/intelFPGA/18.1/nios2eds/bin/gnu/H-x86_64-pc-linux-gnu/bin/../lib/gcc/nios2-elf/5.3.0/mhw-mulx/libgcc.a(gedf2.o)
 .debug_ranges  0x0000000000001408       0xa8 /opt/intelFPGA/18.1/nios2eds/bin/gnu/H-x86_64-pc-linux-gnu/bin/../lib/gcc/nios2-elf/5.3.0/mhw-mulx/libgcc.a(ledf2.o)
 .debug_ranges  0x00000000000014b0      0x1f0 /opt/intelFPGA/18.1/nios2eds/bin/gnu/H-x86_64-pc-linux-gnu/bin/../lib/gcc/nios2-elf/5.3.0/mhw-mulx/libgcc.a(muldf3.o)
 .debug_ranges  0x00000000000016a0      0x268 /opt/intelFPGA/18.1/nios2eds/bin/gnu/H-x86_64-pc-linux-gnu/bin/../lib/gcc/nios2-elf/5.3.0/mhw-mulx/libgcc.a(subdf3.o)
 .debug_ranges  0x0000000000001908       0x30 /opt/intelFPGA/18.1/nios2eds/bin/gnu/H-x86_64-pc-linux-gnu/bin/../lib/gcc/nios2-elf/5.3.0/mhw-mulx/libgcc.a(fixdfsi.o)
 .debug_ranges  0x0000000000001938       0x20 /opt/intelFPGA/18.1/nios2eds/bin/gnu/H-x86_64-pc-linux-gnu/bin/../lib/gcc/nios2-elf/5.3.0/mhw-mulx/libgcc.a(floatsidf.o)
 .debug_ranges  0x0000000000001958       0x18 /opt/intelFPGA/18.1/nios2eds/bin/gnu/H-x86_64-pc-linux-gnu/bin/../lib/gcc/nios2-elf/5.3.0/mhw-mulx/libgcc.a(floatunsidf.o)
 .debug_ranges  0x0000000000001970       0x18 /opt/intelFPGA/18.1/nios2eds/bin/gnu/H-x86_64-pc-linux-gnu/bin/../lib/gcc/nios2-elf/5.3.0/mhw-mulx/libgcc.a(_clzsi2.o)
 .debug_ranges  0x0000000000001988       0x48 ../ucos2nios2_bsp//libucosii_bsp.a(Altera_UP_SD_Card_Avalon_Interface.o)
 .debug_ranges  0x00000000000019d0       0x30 ../ucos2nios2_bsp//libucosii_bsp.a(altera_avalon_jtag_uart_init.o)
 .debug_ranges  0x0000000000001a00       0x18 ../ucos2nios2_bsp//libucosii_bsp.a(altera_avalon_jtag_uart_read.o)
 .debug_ranges  0x0000000000001a18       0x28 ../ucos2nios2_bsp//libucosii_bsp.a(alt_irq_entry.o)
 .debug_ranges  0x0000000000001a40       0x10 ../ucos2nios2_bsp//libucosii_bsp.a(alt_irq_handler.o)
 .debug_ranges  0x0000000000001a50       0x30 ../ucos2nios2_bsp//libucosii_bsp.a(alt_exception_entry.o)
 .debug_ranges  0x0000000000001a80       0x18 ../ucos2nios2_bsp//libucosii_bsp.a(alt_instruction_exception_entry.o)
 .debug_ranges  0x0000000000001a98       0x10 /opt/intelFPGA/18.1/nios2eds/bin/gnu/H-x86_64-pc-linux-gnu/bin/../lib/gcc/nios2-elf/5.3.0/../../../../../H-x86_64-pc-linux-gnu/nios2-elf/lib/mhw-mulx/libc.a(lib_a-atexit.o)
 .debug_ranges  0x0000000000001aa8       0x10 /opt/intelFPGA/18.1/nios2eds/bin/gnu/H-x86_64-pc-linux-gnu/bin/../lib/gcc/nios2-elf/5.3.0/../../../../../H-x86_64-pc-linux-gnu/nios2-elf/lib/mhw-mulx/libc.a(lib_a-exit.o)
 .debug_ranges  0x0000000000001ab8       0x10 /opt/intelFPGA/18.1/nios2eds/bin/gnu/H-x86_64-pc-linux-gnu/bin/../lib/gcc/nios2-elf/5.3.0/../../../../../H-x86_64-pc-linux-gnu/nios2-elf/lib/mhw-mulx/libc.a(lib_a-memcmp.o)
 .debug_ranges  0x0000000000001ac8       0x10 /opt/intelFPGA/18.1/nios2eds/bin/gnu/H-x86_64-pc-linux-gnu/bin/../lib/gcc/nios2-elf/5.3.0/../../../../../H-x86_64-pc-linux-gnu/nios2-elf/lib/mhw-mulx/libc.a(lib_a-__atexit.o)
 .debug_ranges  0x0000000000001ad8       0x30 /opt/intelFPGA/18.1/nios2eds/bin/gnu/H-x86_64-pc-linux-gnu/bin/../lib/gcc/nios2-elf/5.3.0/../../../../../H-x86_64-pc-linux-gnu/nios2-elf/lib/mhw-mulx/libc.a(lib_a-__call_atexit.o)
